ARM GAS  C:\Users\mstai\AppData\Local\Temp\ccDx5aab.s 			page 1


   1              		.syntax unified
   2              		.cpu cortex-m0plus
   3              		.fpu softvfp
   4              		.eabi_attribute 20, 1
   5              		.eabi_attribute 21, 1
   6              		.eabi_attribute 23, 3
   7              		.eabi_attribute 24, 1
   8              		.eabi_attribute 25, 1
   9              		.eabi_attribute 26, 1
  10              		.eabi_attribute 30, 1
  11              		.eabi_attribute 34, 0
  12              		.eabi_attribute 18, 4
  13              		.thumb
  14              		.syntax unified
  15              		.file	"CapSense_Structure.c"
  16              		.text
  17              	.Ltext0:
  18              		.cfi_sections	.debug_frame
  19              		.section	.text.DsParseParamId,"ax",%progbits
  20              		.align	2
  21              		.code	16
  22              		.thumb_func
  23              		.type	DsParseParamId, %function
  24              	DsParseParamId:
  25              	.LFB2:
  26              		.file 1 "Generated_Source\\PSoC4\\CapSense_Structure.c"
   1:Generated_Source\PSoC4/CapSense_Structure.c **** /***************************************************************************//**
   2:Generated_Source\PSoC4/CapSense_Structure.c **** * \file CapSense_Structure.c
   3:Generated_Source\PSoC4/CapSense_Structure.c **** * \version 7.0
   4:Generated_Source\PSoC4/CapSense_Structure.c **** *
   5:Generated_Source\PSoC4/CapSense_Structure.c **** * \brief
   6:Generated_Source\PSoC4/CapSense_Structure.c **** *   This file defines the data structure global variables and provides implementation
   7:Generated_Source\PSoC4/CapSense_Structure.c **** *   for the high-level and low-level APIs of the Data Structure module.
   8:Generated_Source\PSoC4/CapSense_Structure.c **** *
   9:Generated_Source\PSoC4/CapSense_Structure.c **** * \see CapSense v7.0 Datasheet
  10:Generated_Source\PSoC4/CapSense_Structure.c **** *
  11:Generated_Source\PSoC4/CapSense_Structure.c **** *//*****************************************************************************
  12:Generated_Source\PSoC4/CapSense_Structure.c **** * Copyright (2016-2019), Cypress Semiconductor Corporation.
  13:Generated_Source\PSoC4/CapSense_Structure.c **** ********************************************************************************
  14:Generated_Source\PSoC4/CapSense_Structure.c **** * This software is owned by Cypress Semiconductor Corporation (Cypress) and is
  15:Generated_Source\PSoC4/CapSense_Structure.c **** * protected by and subject to worldwide patent protection (United States and
  16:Generated_Source\PSoC4/CapSense_Structure.c **** * foreign), United States copyright laws and international treaty provisions.
  17:Generated_Source\PSoC4/CapSense_Structure.c **** * Cypress hereby grants to licensee a personal, non-exclusive, non-transferable
  18:Generated_Source\PSoC4/CapSense_Structure.c **** * license to copy, use, modify, create derivative works of, and compile the
  19:Generated_Source\PSoC4/CapSense_Structure.c **** * Cypress Source Code and derivative works for the sole purpose of creating
  20:Generated_Source\PSoC4/CapSense_Structure.c **** * custom software in support of licensee product to be used only in conjunction
  21:Generated_Source\PSoC4/CapSense_Structure.c **** * with a Cypress integrated circuit as specified in the applicable agreement.
  22:Generated_Source\PSoC4/CapSense_Structure.c **** * Any reproduction, modification, translation, compilation, or representation of
  23:Generated_Source\PSoC4/CapSense_Structure.c **** * this software except as specified above is prohibited without the express
  24:Generated_Source\PSoC4/CapSense_Structure.c **** * written permission of Cypress.
  25:Generated_Source\PSoC4/CapSense_Structure.c **** *
  26:Generated_Source\PSoC4/CapSense_Structure.c **** * Disclaimer: CYPRESS MAKES NO WARRANTY OF ANY KIND, EXPRESS OR IMPLIED, WITH
  27:Generated_Source\PSoC4/CapSense_Structure.c **** * REGARD TO THIS MATERIAL, INCLUDING, BUT NOT LIMITED TO, THE IMPLIED
  28:Generated_Source\PSoC4/CapSense_Structure.c **** * WARRANTIES OF MERCHANTABILITY AND FITNESS FOR A PARTICULAR PURPOSE.
  29:Generated_Source\PSoC4/CapSense_Structure.c **** * Cypress reserves the right to make changes without further notice to the
  30:Generated_Source\PSoC4/CapSense_Structure.c **** * materials described herein. Cypress does not assume any liability arising out
  31:Generated_Source\PSoC4/CapSense_Structure.c **** * of the application or use of any product or circuit described herein. Cypress
ARM GAS  C:\Users\mstai\AppData\Local\Temp\ccDx5aab.s 			page 2


  32:Generated_Source\PSoC4/CapSense_Structure.c **** * does not authorize its products for use as critical components in life-support
  33:Generated_Source\PSoC4/CapSense_Structure.c **** * systems where a malfunction or failure may reasonably be expected to result in
  34:Generated_Source\PSoC4/CapSense_Structure.c **** * significant injury to the user. The inclusion of Cypress' product in a life-
  35:Generated_Source\PSoC4/CapSense_Structure.c **** * support systems application implies that the manufacturer assumes all risk of
  36:Generated_Source\PSoC4/CapSense_Structure.c **** * such use and in doing so indemnifies Cypress against all charges. Use may be
  37:Generated_Source\PSoC4/CapSense_Structure.c **** * limited by and subject to the applicable Cypress software license agreement.
  38:Generated_Source\PSoC4/CapSense_Structure.c **** *******************************************************************************/
  39:Generated_Source\PSoC4/CapSense_Structure.c **** 
  40:Generated_Source\PSoC4/CapSense_Structure.c **** #include <cytypes.h>
  41:Generated_Source\PSoC4/CapSense_Structure.c **** #include "CyLib.h"
  42:Generated_Source\PSoC4/CapSense_Structure.c **** #include "CapSense_Structure.h"
  43:Generated_Source\PSoC4/CapSense_Structure.c **** #include "CapSense_Configuration.h"
  44:Generated_Source\PSoC4/CapSense_Structure.c **** 
  45:Generated_Source\PSoC4/CapSense_Structure.c **** #if (0u != CapSense_ADC_EN)
  46:Generated_Source\PSoC4/CapSense_Structure.c ****     #include "CapSense_Adc.h"
  47:Generated_Source\PSoC4/CapSense_Structure.c **** #endif /* (0u != CapSense_ADC_EN) */
  48:Generated_Source\PSoC4/CapSense_Structure.c **** 
  49:Generated_Source\PSoC4/CapSense_Structure.c **** #if (CapSense_ENABLE == CapSense_SELF_TEST_EN)
  50:Generated_Source\PSoC4/CapSense_Structure.c ****     #include "CapSense_SelfTest.h"
  51:Generated_Source\PSoC4/CapSense_Structure.c **** #endif
  52:Generated_Source\PSoC4/CapSense_Structure.c **** 
  53:Generated_Source\PSoC4/CapSense_Structure.c **** #if (CapSense_ENABLE == CapSense_CENTROID_5X5_CSD_EN)
  54:Generated_Source\PSoC4/CapSense_Structure.c ****     #include "CapSense_AdvancedCentroid_LL.h"
  55:Generated_Source\PSoC4/CapSense_Structure.c **** #endif
  56:Generated_Source\PSoC4/CapSense_Structure.c **** 
  57:Generated_Source\PSoC4/CapSense_Structure.c **** #if (CapSense_ENABLE == CapSense_GES_GLOBAL_EN)
  58:Generated_Source\PSoC4/CapSense_Structure.c ****     #include "CapSense_Gesture.h"
  59:Generated_Source\PSoC4/CapSense_Structure.c **** #endif /* (CapSense_ENABLE == CapSense_GES_GLOBAL_EN) */
  60:Generated_Source\PSoC4/CapSense_Structure.c **** 
  61:Generated_Source\PSoC4/CapSense_Structure.c **** /*******************************************************************************
  62:Generated_Source\PSoC4/CapSense_Structure.c **** * Defines the RAM Data Structure variables and their init data in flash
  63:Generated_Source\PSoC4/CapSense_Structure.c **** *******************************************************************************/
  64:Generated_Source\PSoC4/CapSense_Structure.c **** /**
  65:Generated_Source\PSoC4/CapSense_Structure.c **** * \cond SECTION_GLOBAL_VARIABLES
  66:Generated_Source\PSoC4/CapSense_Structure.c **** * \addtogroup group_global_variables
  67:Generated_Source\PSoC4/CapSense_Structure.c **** * \{
  68:Generated_Source\PSoC4/CapSense_Structure.c **** */
  69:Generated_Source\PSoC4/CapSense_Structure.c **** 
  70:Generated_Source\PSoC4/CapSense_Structure.c **** /**
  71:Generated_Source\PSoC4/CapSense_Structure.c **** * The variable that contains the CapSense configuration, settings and
  72:Generated_Source\PSoC4/CapSense_Structure.c **** * scanning results. CapSense_dsRam represents RAM Data Structure.
  73:Generated_Source\PSoC4/CapSense_Structure.c **** */
  74:Generated_Source\PSoC4/CapSense_Structure.c **** CapSense_RAM_STRUCT CapSense_dsRam;
  75:Generated_Source\PSoC4/CapSense_Structure.c **** /** \}
  76:Generated_Source\PSoC4/CapSense_Structure.c **** * \endcond */
  77:Generated_Source\PSoC4/CapSense_Structure.c **** 
  78:Generated_Source\PSoC4/CapSense_Structure.c **** /*******************************************************************************
  79:Generated_Source\PSoC4/CapSense_Structure.c **** * Declares Widget's De-bounce Counters
  80:Generated_Source\PSoC4/CapSense_Structure.c **** *******************************************************************************/
  81:Generated_Source\PSoC4/CapSense_Structure.c **** static uint8 CapSense_debounceTaxel[CapSense_TAXEL_NUM_SENSORS];
  82:Generated_Source\PSoC4/CapSense_Structure.c **** 
  83:Generated_Source\PSoC4/CapSense_Structure.c **** 
  84:Generated_Source\PSoC4/CapSense_Structure.c **** /*******************************************************************************
  85:Generated_Source\PSoC4/CapSense_Structure.c **** * Defines and initializes the Flash Data Structure
  86:Generated_Source\PSoC4/CapSense_Structure.c **** *******************************************************************************/
  87:Generated_Source\PSoC4/CapSense_Structure.c **** 
  88:Generated_Source\PSoC4/CapSense_Structure.c **** 
ARM GAS  C:\Users\mstai\AppData\Local\Temp\ccDx5aab.s 			page 3


  89:Generated_Source\PSoC4/CapSense_Structure.c **** 
  90:Generated_Source\PSoC4/CapSense_Structure.c **** /**
  91:Generated_Source\PSoC4/CapSense_Structure.c **** * \cond SECTION_API_CONSTANTS
  92:Generated_Source\PSoC4/CapSense_Structure.c **** * \addtogroup group_api_constants
  93:Generated_Source\PSoC4/CapSense_Structure.c **** * \{
  94:Generated_Source\PSoC4/CapSense_Structure.c **** */
  95:Generated_Source\PSoC4/CapSense_Structure.c **** /**
  96:Generated_Source\PSoC4/CapSense_Structure.c **** * Constant for the FLASH Data Structure
  97:Generated_Source\PSoC4/CapSense_Structure.c **** */
  98:Generated_Source\PSoC4/CapSense_Structure.c **** const CapSense_FLASH_STRUCT CapSense_dsFlash =
  99:Generated_Source\PSoC4/CapSense_Structure.c **** {
 100:Generated_Source\PSoC4/CapSense_Structure.c ****     /* Flash Widget Initialization Data */
 101:Generated_Source\PSoC4/CapSense_Structure.c ****     {
 102:Generated_Source\PSoC4/CapSense_Structure.c ****         { /* Taxel */
 103:Generated_Source\PSoC4/CapSense_Structure.c ****             &CapSense_ioList[0u],
 104:Generated_Source\PSoC4/CapSense_Structure.c ****             (void *)&CapSense_dsRam.wdgtList.taxel,
 105:Generated_Source\PSoC4/CapSense_Structure.c ****             CapSense_dsRam.snsList.taxel,
 106:Generated_Source\PSoC4/CapSense_Structure.c ****             (void *)0u,
 107:Generated_Source\PSoC4/CapSense_Structure.c ****             CapSense_debounceTaxel,
 108:Generated_Source\PSoC4/CapSense_Structure.c ****             CapSense_TAXEL_STATIC_CONFIG,
 109:Generated_Source\PSoC4/CapSense_Structure.c ****             CapSense_TAXEL_NUM_SENSORS,
 110:Generated_Source\PSoC4/CapSense_Structure.c ****             (uint8)CapSense_WD_BUTTON_E,
 111:Generated_Source\PSoC4/CapSense_Structure.c ****             CapSense_TAXEL_NUM_SENSORS,
 112:Generated_Source\PSoC4/CapSense_Structure.c ****             &CapSense_dsRam.snsCp.taxel[0u],
 113:Generated_Source\PSoC4/CapSense_Structure.c ****         },
 114:Generated_Source\PSoC4/CapSense_Structure.c ****     },
 115:Generated_Source\PSoC4/CapSense_Structure.c **** };
 116:Generated_Source\PSoC4/CapSense_Structure.c **** 
 117:Generated_Source\PSoC4/CapSense_Structure.c **** /**
 118:Generated_Source\PSoC4/CapSense_Structure.c **** * The array of the pointers to the electrode specific register.
 119:Generated_Source\PSoC4/CapSense_Structure.c **** */
 120:Generated_Source\PSoC4/CapSense_Structure.c **** const CapSense_FLASH_IO_STRUCT CapSense_ioList[CapSense_TOTAL_ELECTRODES] =
 121:Generated_Source\PSoC4/CapSense_Structure.c **** {
 122:Generated_Source\PSoC4/CapSense_Structure.c ****     { /* 0: Taxel_Sns0 */
 123:Generated_Source\PSoC4/CapSense_Structure.c ****         (reg32 *)CapSense_Sns__0__HSIOM,
 124:Generated_Source\PSoC4/CapSense_Structure.c ****         (reg32 *)CapSense_Sns__0__PC,
 125:Generated_Source\PSoC4/CapSense_Structure.c ****         (reg32 *)CapSense_Sns__0__PC2,
 126:Generated_Source\PSoC4/CapSense_Structure.c ****         (reg32 *)CapSense_Sns__0__DR,
 127:Generated_Source\PSoC4/CapSense_Structure.c ****         (reg32 *)CapSense_Sns__0__PS,
 128:Generated_Source\PSoC4/CapSense_Structure.c ****         CapSense_Sns__0__HSIOM_MASK,
 129:Generated_Source\PSoC4/CapSense_Structure.c ****         CapSense_Sns__0__MASK,
 130:Generated_Source\PSoC4/CapSense_Structure.c ****         CapSense_Sns__0__HSIOM_SHIFT,
 131:Generated_Source\PSoC4/CapSense_Structure.c ****         (uint8)CapSense_Sns__0__SHIFT,
 132:Generated_Source\PSoC4/CapSense_Structure.c ****         (uint8)CapSense_Sns__0__SHIFT * 3u,
 133:Generated_Source\PSoC4/CapSense_Structure.c ****     },
 134:Generated_Source\PSoC4/CapSense_Structure.c **** };
 135:Generated_Source\PSoC4/CapSense_Structure.c **** 
 136:Generated_Source\PSoC4/CapSense_Structure.c **** 
 137:Generated_Source\PSoC4/CapSense_Structure.c **** 
 138:Generated_Source\PSoC4/CapSense_Structure.c **** /** \}
 139:Generated_Source\PSoC4/CapSense_Structure.c **** * \endcond */
 140:Generated_Source\PSoC4/CapSense_Structure.c **** 
 141:Generated_Source\PSoC4/CapSense_Structure.c **** /* Initialization data for RAM widget list */
 142:Generated_Source\PSoC4/CapSense_Structure.c **** const CapSense_RAM_WD_LIST_STRUCT CapSense_ramWidgetInit =
 143:Generated_Source\PSoC4/CapSense_Structure.c **** {
 144:Generated_Source\PSoC4/CapSense_Structure.c ****     { /* Taxel */
 145:Generated_Source\PSoC4/CapSense_Structure.c ****         CapSense_TAXEL_CRC,
ARM GAS  C:\Users\mstai\AppData\Local\Temp\ccDx5aab.s 			page 4


 146:Generated_Source\PSoC4/CapSense_Structure.c ****         CapSense_TAXEL_RESOLUTION,
 147:Generated_Source\PSoC4/CapSense_Structure.c ****         CapSense_TAXEL_FINGER_TH,
 148:Generated_Source\PSoC4/CapSense_Structure.c ****         CapSense_TAXEL_NOISE_TH,
 149:Generated_Source\PSoC4/CapSense_Structure.c ****         CapSense_TAXEL_NNOISE_TH,
 150:Generated_Source\PSoC4/CapSense_Structure.c ****         CapSense_TAXEL_HYSTERESIS,
 151:Generated_Source\PSoC4/CapSense_Structure.c ****         CapSense_TAXEL_ON_DEBOUNCE,
 152:Generated_Source\PSoC4/CapSense_Structure.c ****         CapSense_TAXEL_LOW_BSLN_RST,
 153:Generated_Source\PSoC4/CapSense_Structure.c ****         {
 154:Generated_Source\PSoC4/CapSense_Structure.c ****             CapSense_TAXEL_IDAC_MOD0,
 155:Generated_Source\PSoC4/CapSense_Structure.c ****         },
 156:Generated_Source\PSoC4/CapSense_Structure.c ****         CapSense_TAXEL_IDAC_GAIN_INDEX,
 157:Generated_Source\PSoC4/CapSense_Structure.c ****         CapSense_TAXEL_SNS_CLK,
 158:Generated_Source\PSoC4/CapSense_Structure.c ****         CapSense_TAXEL_SNS_CLK_SOURCE,
 159:Generated_Source\PSoC4/CapSense_Structure.c ****     },
 160:Generated_Source\PSoC4/CapSense_Structure.c **** };
 161:Generated_Source\PSoC4/CapSense_Structure.c **** 
 162:Generated_Source\PSoC4/CapSense_Structure.c **** 
 163:Generated_Source\PSoC4/CapSense_Structure.c **** /* IDAC Initialization Data */
 164:Generated_Source\PSoC4/CapSense_Structure.c **** const uint8 CapSense_ramIdacInit[CapSense_TOTAL_SENSORS] =
 165:Generated_Source\PSoC4/CapSense_Structure.c **** {
 166:Generated_Source\PSoC4/CapSense_Structure.c ****     /* Taxel */
 167:Generated_Source\PSoC4/CapSense_Structure.c ****     CapSense_TAXEL_SNS0_IDAC_COMP0,
 168:Generated_Source\PSoC4/CapSense_Structure.c **** };
 169:Generated_Source\PSoC4/CapSense_Structure.c **** 
 170:Generated_Source\PSoC4/CapSense_Structure.c **** 
 171:Generated_Source\PSoC4/CapSense_Structure.c **** 
 172:Generated_Source\PSoC4/CapSense_Structure.c **** 
 173:Generated_Source\PSoC4/CapSense_Structure.c **** 
 174:Generated_Source\PSoC4/CapSense_Structure.c **** /*******************************************************************************
 175:Generated_Source\PSoC4/CapSense_Structure.c **** * Defines internal data types and statements
 176:Generated_Source\PSoC4/CapSense_Structure.c **** *******************************************************************************/
 177:Generated_Source\PSoC4/CapSense_Structure.c **** #define PARAM_TYPE_OFFSET       (30u)
 178:Generated_Source\PSoC4/CapSense_Structure.c **** #define PARAM_TYPE_MASK         (3Lu << PARAM_TYPE_OFFSET)
 179:Generated_Source\PSoC4/CapSense_Structure.c **** #define PARAM_RWBIT_OFFSET      (29u)
 180:Generated_Source\PSoC4/CapSense_Structure.c **** #define PARAM_RWBIT_MASK        (1Lu << PARAM_RWBIT_OFFSET)
 181:Generated_Source\PSoC4/CapSense_Structure.c **** #define PARAM_FBIT_OFFSET       (28u)
 182:Generated_Source\PSoC4/CapSense_Structure.c **** #define PARAM_FBIT_MASK         (1Lu << PARAM_FBIT_OFFSET)
 183:Generated_Source\PSoC4/CapSense_Structure.c **** #define PARAM_UBIT_OFFSET       (23u)
 184:Generated_Source\PSoC4/CapSense_Structure.c **** #define PARAM_UBIT_MASK         (1Lu << PARAM_UBIT_OFFSET)
 185:Generated_Source\PSoC4/CapSense_Structure.c **** #define PARAM_WDID_OFFSET       (16u)
 186:Generated_Source\PSoC4/CapSense_Structure.c **** #define PARAM_WDID_MASK         (0x7FLu << PARAM_WDID_OFFSET)
 187:Generated_Source\PSoC4/CapSense_Structure.c **** #define PARAM_CRC_OFFSET        (24u)
 188:Generated_Source\PSoC4/CapSense_Structure.c **** #define PARAM_CRC_MASK          (0x0FLu << PARAM_CRC_OFFSET)
 189:Generated_Source\PSoC4/CapSense_Structure.c **** 
 190:Generated_Source\PSoC4/CapSense_Structure.c **** /* Defines align masks for uint16 and uint32 */
 191:Generated_Source\PSoC4/CapSense_Structure.c **** #define UINT16_ALIGN_MASK       (1Lu)
 192:Generated_Source\PSoC4/CapSense_Structure.c **** #define UINT32_ALIGN_MASK       (3Lu)
 193:Generated_Source\PSoC4/CapSense_Structure.c **** 
 194:Generated_Source\PSoC4/CapSense_Structure.c **** /* Defines supported parameter types */
 195:Generated_Source\PSoC4/CapSense_Structure.c **** #define DS_PARAM_TYPE_UINT8     (0x01u)
 196:Generated_Source\PSoC4/CapSense_Structure.c **** #define DS_PARAM_TYPE_UINT16    (0x02u)
 197:Generated_Source\PSoC4/CapSense_Structure.c **** #define DS_PARAM_TYPE_UINT32    (0x03u)
 198:Generated_Source\PSoC4/CapSense_Structure.c **** 
 199:Generated_Source\PSoC4/CapSense_Structure.c **** 
 200:Generated_Source\PSoC4/CapSense_Structure.c **** /* Defines PARAM_ID structure */
 201:Generated_Source\PSoC4/CapSense_Structure.c **** typedef struct
 202:Generated_Source\PSoC4/CapSense_Structure.c **** {
ARM GAS  C:\Users\mstai\AppData\Local\Temp\ccDx5aab.s 			page 5


 203:Generated_Source\PSoC4/CapSense_Structure.c ****     uint16 offset;      /* parameter offset */
 204:Generated_Source\PSoC4/CapSense_Structure.c ****     uint8  widgetId;    /* widget Id parameter belongs to */
 205:Generated_Source\PSoC4/CapSense_Structure.c ****     uint8  affectsCrc;  /* parameter affects widget CRC */
 206:Generated_Source\PSoC4/CapSense_Structure.c ****     uint8  crc;         /* parameter CRC */
 207:Generated_Source\PSoC4/CapSense_Structure.c ****     uint8  flash;       /* parameter located in FLASH flag */
 208:Generated_Source\PSoC4/CapSense_Structure.c ****     uint8  rw;          /* parameter is read/write flag */
 209:Generated_Source\PSoC4/CapSense_Structure.c ****     uint8  type;        /* parameter type: uint8/uint16/uint32 */
 210:Generated_Source\PSoC4/CapSense_Structure.c **** } PARAM_ID_STRUCT;
 211:Generated_Source\PSoC4/CapSense_Structure.c **** 
 212:Generated_Source\PSoC4/CapSense_Structure.c **** 
 213:Generated_Source\PSoC4/CapSense_Structure.c **** /*******************************************************************************
 214:Generated_Source\PSoC4/CapSense_Structure.c **** * Static Function Prototypes
 215:Generated_Source\PSoC4/CapSense_Structure.c **** *******************************************************************************/
 216:Generated_Source\PSoC4/CapSense_Structure.c **** /**
 217:Generated_Source\PSoC4/CapSense_Structure.c **** * \cond SECTION_C_INTERNAL
 218:Generated_Source\PSoC4/CapSense_Structure.c **** * \addtogroup group_c_internal
 219:Generated_Source\PSoC4/CapSense_Structure.c **** * \{
 220:Generated_Source\PSoC4/CapSense_Structure.c **** */
 221:Generated_Source\PSoC4/CapSense_Structure.c **** 
 222:Generated_Source\PSoC4/CapSense_Structure.c **** 
 223:Generated_Source\PSoC4/CapSense_Structure.c **** /* Ext Cap Mapping Data */
 224:Generated_Source\PSoC4/CapSense_Structure.c **** const uint8 CapSense_extCapMap[CapSense_TST_EXT_CAPS_NUM] =
 225:Generated_Source\PSoC4/CapSense_Structure.c **** {
 226:Generated_Source\PSoC4/CapSense_Structure.c ****     CapSense_TST_CMOD_MAP,
 227:Generated_Source\PSoC4/CapSense_Structure.c **** };
 228:Generated_Source\PSoC4/CapSense_Structure.c **** 
 229:Generated_Source\PSoC4/CapSense_Structure.c **** 
 230:Generated_Source\PSoC4/CapSense_Structure.c **** static cystatus DsParseParamId(uint32 paramId, PARAM_ID_STRUCT *pData);
 231:Generated_Source\PSoC4/CapSense_Structure.c **** 
 232:Generated_Source\PSoC4/CapSense_Structure.c **** /** \}
 233:Generated_Source\PSoC4/CapSense_Structure.c **** * \endcond */
 234:Generated_Source\PSoC4/CapSense_Structure.c **** 
 235:Generated_Source\PSoC4/CapSense_Structure.c **** 
 236:Generated_Source\PSoC4/CapSense_Structure.c **** /*******************************************************************************
 237:Generated_Source\PSoC4/CapSense_Structure.c **** * Function Name: CapSense_DsInitialize
 238:Generated_Source\PSoC4/CapSense_Structure.c **** ****************************************************************************//**
 239:Generated_Source\PSoC4/CapSense_Structure.c **** *
 240:Generated_Source\PSoC4/CapSense_Structure.c **** * \brief
 241:Generated_Source\PSoC4/CapSense_Structure.c **** *   This function initializes the Data Structure storage.
 242:Generated_Source\PSoC4/CapSense_Structure.c **** *
 243:Generated_Source\PSoC4/CapSense_Structure.c **** * \details
 244:Generated_Source\PSoC4/CapSense_Structure.c **** *   This function copies the default widget configuration parameters
 245:Generated_Source\PSoC4/CapSense_Structure.c **** *   from the Flash storage into the RAM Data Structure.
 246:Generated_Source\PSoC4/CapSense_Structure.c **** *
 247:Generated_Source\PSoC4/CapSense_Structure.c **** *******************************************************************************/
 248:Generated_Source\PSoC4/CapSense_Structure.c **** void CapSense_DsInitialize(void)
 249:Generated_Source\PSoC4/CapSense_Structure.c **** {
 250:Generated_Source\PSoC4/CapSense_Structure.c ****     #if ((CapSense_ENABLE == CapSense_CSX_EN) || \
 251:Generated_Source\PSoC4/CapSense_Structure.c ****          (CapSense_ENABLE == CapSense_CSD_IDAC_COMP_EN) || \
 252:Generated_Source\PSoC4/CapSense_Structure.c ****         ((CapSense_ENABLE == CapSense_CSX_EN) && \
 253:Generated_Source\PSoC4/CapSense_Structure.c ****          (CapSense_ENABLE == CapSense_CSX_SKIP_OVSMPL_SPECIFIC_NODES)))
 254:Generated_Source\PSoC4/CapSense_Structure.c ****         uint32 snsId;
 255:Generated_Source\PSoC4/CapSense_Structure.c ****         uint32 wdgtId;
 256:Generated_Source\PSoC4/CapSense_Structure.c ****         CapSense_RAM_SNS_STRUCT * ptrSnsTmp;
 257:Generated_Source\PSoC4/CapSense_Structure.c ****         CapSense_FLASH_WD_STRUCT const * ptrFlashWdgt;
 258:Generated_Source\PSoC4/CapSense_Structure.c ****     #endif
 259:Generated_Source\PSoC4/CapSense_Structure.c **** 
ARM GAS  C:\Users\mstai\AppData\Local\Temp\ccDx5aab.s 			page 6


 260:Generated_Source\PSoC4/CapSense_Structure.c ****     #if ((CapSense_ENABLE == CapSense_CSX_EN) && \
 261:Generated_Source\PSoC4/CapSense_Structure.c ****          (CapSense_ENABLE == CapSense_CSX_SKIP_OVSMPL_SPECIFIC_NODES))
 262:Generated_Source\PSoC4/CapSense_Structure.c ****         uint16 subConvNumber;
 263:Generated_Source\PSoC4/CapSense_Structure.c ****     #endif
 264:Generated_Source\PSoC4/CapSense_Structure.c **** 
 265:Generated_Source\PSoC4/CapSense_Structure.c ****     #if ((0u != CapSense_CSX_EN) || (0 != CapSense_CSD_IDAC_COMP_EN))
 266:Generated_Source\PSoC4/CapSense_Structure.c ****         uint8 const * ptrIdacInit = CapSense_ramIdacInit;
 267:Generated_Source\PSoC4/CapSense_Structure.c ****     #endif
 268:Generated_Source\PSoC4/CapSense_Structure.c **** 
 269:Generated_Source\PSoC4/CapSense_Structure.c ****     /* Reset RAM data structure content */
 270:Generated_Source\PSoC4/CapSense_Structure.c ****     (void)memset(&CapSense_dsRam, 0, sizeof(CapSense_dsRam));
 271:Generated_Source\PSoC4/CapSense_Structure.c **** 
 272:Generated_Source\PSoC4/CapSense_Structure.c ****     /* Initialize configId, deviceId and hwClock registers */
 273:Generated_Source\PSoC4/CapSense_Structure.c ****     CapSense_dsRam.configId = CapSense_CONFIG_ID;
 274:Generated_Source\PSoC4/CapSense_Structure.c ****     CapSense_dsRam.deviceId = CapSense_DEVICE_ID;
 275:Generated_Source\PSoC4/CapSense_Structure.c ****     CapSense_dsRam.hwClock = CapSense_HW_CLOCK;
 276:Generated_Source\PSoC4/CapSense_Structure.c **** 
 277:Generated_Source\PSoC4/CapSense_Structure.c ****     /* Initialize global RAM data */
 278:Generated_Source\PSoC4/CapSense_Structure.c ****     CapSense_dsRam.csd0Config = CapSense_CSD0_CONFIG;
 279:Generated_Source\PSoC4/CapSense_Structure.c **** 
 280:Generated_Source\PSoC4/CapSense_Structure.c ****     CapSense_dsRam.scanCurrentISC = CapSense_SNS_CONNECTION_UNDEFINED;
 281:Generated_Source\PSoC4/CapSense_Structure.c ****     #if (0u != CapSense_TOTAL_CSD_WIDGETS)
 282:Generated_Source\PSoC4/CapSense_Structure.c ****         CapSense_dsRam.modCsdClk = CapSense_CSD_SCANSPEED_DIVIDER;
 283:Generated_Source\PSoC4/CapSense_Structure.c ****         CapSense_dsRam.scanCsdISC = CapSense_CSD_INACTIVE_SNS_CONNECTION;
 284:Generated_Source\PSoC4/CapSense_Structure.c **** 
 285:Generated_Source\PSoC4/CapSense_Structure.c ****         #if (0u != CapSense_CSD_COMMON_SNS_CLK_EN)
 286:Generated_Source\PSoC4/CapSense_Structure.c ****             CapSense_dsRam.snsCsdClk = CapSense_CSD_SNS_CLK_DIVIDER;
 287:Generated_Source\PSoC4/CapSense_Structure.c ****         #endif /* #if (0u != CapSense_CSD_COMMON_SNS_CLK_EN) */
 288:Generated_Source\PSoC4/CapSense_Structure.c ****     #endif /* #if (0u != CapSense_TOTAL_CSD_WIDGETS) */
 289:Generated_Source\PSoC4/CapSense_Structure.c **** 
 290:Generated_Source\PSoC4/CapSense_Structure.c ****     #if (CapSense_ENABLE == CapSense_CSX_EN)
 291:Generated_Source\PSoC4/CapSense_Structure.c ****         CapSense_dsRam.modCsxClk = CapSense_CSX_SCANSPEED_DIVIDER;
 292:Generated_Source\PSoC4/CapSense_Structure.c ****         CapSense_dsRam.scanCsxISC = CapSense_CSX_INACTIVE_SNS_CONNECTION;
 293:Generated_Source\PSoC4/CapSense_Structure.c **** 
 294:Generated_Source\PSoC4/CapSense_Structure.c ****         #if (0u != CapSense_CSX_COMMON_TX_CLK_EN)
 295:Generated_Source\PSoC4/CapSense_Structure.c ****             CapSense_dsRam.snsCsxClk = CapSense_CSX_TX_CLK_DIVIDER;
 296:Generated_Source\PSoC4/CapSense_Structure.c ****         #endif /* #if (0u != CapSense_CSX_COMMON_TX_CLK_EN) */
 297:Generated_Source\PSoC4/CapSense_Structure.c ****     #endif /* #if (CapSense_ENABLE == CapSense_CSX_EN) */
 298:Generated_Source\PSoC4/CapSense_Structure.c **** 
 299:Generated_Source\PSoC4/CapSense_Structure.c ****     #if (CapSense_ENABLE == CapSense_ISX_EN)
 300:Generated_Source\PSoC4/CapSense_Structure.c ****         CapSense_dsRam.modIsxClk = CapSense_ISX_SCANSPEED_DIVIDER;
 301:Generated_Source\PSoC4/CapSense_Structure.c ****     #endif /* #if (0u != CapSense_ISX_EN) */
 302:Generated_Source\PSoC4/CapSense_Structure.c **** 
 303:Generated_Source\PSoC4/CapSense_Structure.c ****     #if (0u != CapSense_SELF_TEST_EN)
 304:Generated_Source\PSoC4/CapSense_Structure.c **** 
 305:Generated_Source\PSoC4/CapSense_Structure.c ****         CapSense_dsRam.glbCrc = CapSense_GLB_CRC;
 306:Generated_Source\PSoC4/CapSense_Structure.c ****         CapSense_dsRam.selfTestConfig.fineInitTime = (uint8)CapSense_TST_FINE_INIT_TIME;
 307:Generated_Source\PSoC4/CapSense_Structure.c ****         CapSense_dsRam.selfTestConfig.startupDelay = CapSense_TST_ANALOG_STARTUP_DELAY_US;
 308:Generated_Source\PSoC4/CapSense_Structure.c **** 
 309:Generated_Source\PSoC4/CapSense_Structure.c ****         #if (0u != CapSense_TST_SNS_SHORT_EN)
 310:Generated_Source\PSoC4/CapSense_Structure.c ****             CapSense_dsRam.selfTestConfig.snsShortTimeUs = CapSense_TST_SNS_SHORT_TIME;
 311:Generated_Source\PSoC4/CapSense_Structure.c ****         #endif
 312:Generated_Source\PSoC4/CapSense_Structure.c **** 
 313:Generated_Source\PSoC4/CapSense_Structure.c ****         #if ((0u != CapSense_TST_SNS_CAP_EN) ||\
 314:Generated_Source\PSoC4/CapSense_Structure.c ****              (0u != CapSense_TST_SH_CAP_EN))
 315:Generated_Source\PSoC4/CapSense_Structure.c ****             CapSense_dsRam.selfTestConfig.snsCapSnsClkDivider = CapSense_TST_SNS_CAP_SNS_CLK_DIVIDE
 316:Generated_Source\PSoC4/CapSense_Structure.c ****             CapSense_dsRam.selfTestConfig.snsCapSnsClkHz = CapSense_TST_SNS_CAP_SNS_CLK_HZ;
ARM GAS  C:\Users\mstai\AppData\Local\Temp\ccDx5aab.s 			page 7


 317:Generated_Source\PSoC4/CapSense_Structure.c ****             CapSense_dsRam.selfTestConfig.snsCapResolution = CapSense_TST_SNS_CAP_RESOLUTION;
 318:Generated_Source\PSoC4/CapSense_Structure.c ****             CapSense_dsRam.selfTestConfig.snsCapVrefGain = CapSense_TST_SNS_CAP_VREF_GAIN ;
 319:Generated_Source\PSoC4/CapSense_Structure.c ****             CapSense_dsRam.selfTestConfig.snsCapVrefVoltage = CapSense_TST_SNS_CAP_VREF_MV;
 320:Generated_Source\PSoC4/CapSense_Structure.c ****             CapSense_dsRam.selfTestConfig.snsCapModClkDivider = CapSense_TST_MOD_CLK_DIVIDER ;
 321:Generated_Source\PSoC4/CapSense_Structure.c ****             CapSense_dsRam.selfTestConfig.snsCapModClkKHz = CapSense_TST_MOD_CLK_KHZ ;
 322:Generated_Source\PSoC4/CapSense_Structure.c ****         #endif /* ((0u != CapSense_TST_SNS_CAP_EN) ||
 323:Generated_Source\PSoC4/CapSense_Structure.c ****                    (0u != CapSense_TST_SH_CAP_EN)) */
 324:Generated_Source\PSoC4/CapSense_Structure.c **** 
 325:Generated_Source\PSoC4/CapSense_Structure.c ****         #if (0u != CapSense_TST_SNS_CAP_EN)
 326:Generated_Source\PSoC4/CapSense_Structure.c ****             #if (0u != CapSense_CSD_EN)
 327:Generated_Source\PSoC4/CapSense_Structure.c ****                 CapSense_dsRam.selfTestConfig.bistCsdSnsCapISC = CapSense_SNS_CAP_CSD_INACTIVE_CONN
 328:Generated_Source\PSoC4/CapSense_Structure.c ****             #endif /* (0u != CapSense_CSD_EN) */
 329:Generated_Source\PSoC4/CapSense_Structure.c ****             #if (0u != CapSense_CSX_EN)
 330:Generated_Source\PSoC4/CapSense_Structure.c ****                 CapSense_dsRam.selfTestConfig.bistCsxSnsCapISC = CapSense_SNS_CAP_CSX_INACTIVE_CONN
 331:Generated_Source\PSoC4/CapSense_Structure.c ****             #endif /* (0u != CapSense_CSX_EN) */
 332:Generated_Source\PSoC4/CapSense_Structure.c ****         #endif /* (0u != CapSense_TST_SNS_CAP_EN) */
 333:Generated_Source\PSoC4/CapSense_Structure.c **** 
 334:Generated_Source\PSoC4/CapSense_Structure.c ****         #if (0u != CapSense_TST_SH_CAP_EN)
 335:Generated_Source\PSoC4/CapSense_Structure.c ****             #if ((0u != CapSense_CSD_EN) && (0u != CapSense_CSD_SHIELD_EN))
 336:Generated_Source\PSoC4/CapSense_Structure.c ****                 CapSense_dsRam.selfTestConfig.bistCsdShCapISC = CapSense_SHIELD_CAP_INACTIVE_CONNEC
 337:Generated_Source\PSoC4/CapSense_Structure.c ****             #endif /* ((0u != CapSense_CSD_EN) && (0u != CapSense_CSD_SHIELD_EN)) */
 338:Generated_Source\PSoC4/CapSense_Structure.c ****         #endif /* (0u != CapSense_TST_SH_CAP_EN) */
 339:Generated_Source\PSoC4/CapSense_Structure.c **** 
 340:Generated_Source\PSoC4/CapSense_Structure.c ****         #if (0u != CapSense_TST_EXTERNAL_CAP_EN)
 341:Generated_Source\PSoC4/CapSense_Structure.c ****             CapSense_dsRam.selfTestConfig.extCapVrefGain = CapSense_TST_EXT_CAP_VREF_GAIN;
 342:Generated_Source\PSoC4/CapSense_Structure.c ****             CapSense_dsRam.selfTestConfig.extCapVrefVoltage = CapSense_TST_EXT_CAP_VREF_MV;
 343:Generated_Source\PSoC4/CapSense_Structure.c ****         #endif /* #if (0u != CapSense_TST_EXTERNAL_CAP_EN) */
 344:Generated_Source\PSoC4/CapSense_Structure.c **** 
 345:Generated_Source\PSoC4/CapSense_Structure.c ****         #if (0u != CapSense_TST_VDDA_EN)
 346:Generated_Source\PSoC4/CapSense_Structure.c ****             CapSense_dsRam.selfTestConfig.vddaResolution = CapSense_TST_VDDA_RESOLUTION;
 347:Generated_Source\PSoC4/CapSense_Structure.c ****             CapSense_dsRam.selfTestConfig.vddaModClkDivider = CapSense_TST_VDDA_MOD_CLK_DIVIDER;
 348:Generated_Source\PSoC4/CapSense_Structure.c **** 
 349:Generated_Source\PSoC4/CapSense_Structure.c ****             CapSense_dsRam.selfTestConfig.vddaVrefGain = CapSense_TST_VDDA_VREF_GAIN;
 350:Generated_Source\PSoC4/CapSense_Structure.c ****             CapSense_dsRam.selfTestConfig.vddaVrefVoltage = CapSense_TST_VDDA_VREF_MV;
 351:Generated_Source\PSoC4/CapSense_Structure.c ****         #endif /* #if (0u != CapSense_TST_VDDA_EN) */
 352:Generated_Source\PSoC4/CapSense_Structure.c **** 
 353:Generated_Source\PSoC4/CapSense_Structure.c ****     #endif /* #if (0u != CapSense_SELF_TEST_EN) */
 354:Generated_Source\PSoC4/CapSense_Structure.c **** 
 355:Generated_Source\PSoC4/CapSense_Structure.c ****     /* Initialize RAM widget data */
 356:Generated_Source\PSoC4/CapSense_Structure.c ****     CapSense_dsRam.wdgtList = CapSense_ramWidgetInit;
 357:Generated_Source\PSoC4/CapSense_Structure.c **** 
 358:Generated_Source\PSoC4/CapSense_Structure.c ****     /* Initialize Gesture configuration structure */
 359:Generated_Source\PSoC4/CapSense_Structure.c ****     #if ((0u != CapSense_GES_GLOBAL_EN) || (0u != CapSense_BALLISTIC_MULTIPLIER_EN))
 360:Generated_Source\PSoC4/CapSense_Structure.c ****         CapSense_dsRam.timestampInterval = CapSense_TIMESTAMP_INTERVAL;
 361:Generated_Source\PSoC4/CapSense_Structure.c ****     #endif /* ((0u != CapSense_GES_GLOBAL_EN) || (0u != CapSense_BALLISTIC_MULTIPLIER_EN)) */
 362:Generated_Source\PSoC4/CapSense_Structure.c **** 
 363:Generated_Source\PSoC4/CapSense_Structure.c ****     #if (0u != CapSense_GES_GLOBAL_EN)
 364:Generated_Source\PSoC4/CapSense_Structure.c ****         CapSense_dsRam.gestures = CapSense_ramGesturesInit;
 365:Generated_Source\PSoC4/CapSense_Structure.c ****     #endif /* (0u != CapSense_GES_GLOBAL_EN) */
 366:Generated_Source\PSoC4/CapSense_Structure.c **** 
 367:Generated_Source\PSoC4/CapSense_Structure.c ****     #if (0u != CapSense_BALLISTIC_MULTIPLIER_EN)
 368:Generated_Source\PSoC4/CapSense_Structure.c ****         CapSense_dsRam.ballisticConfig = CapSense_ramBallisticInit;
 369:Generated_Source\PSoC4/CapSense_Structure.c ****     #endif /* (0u != CapSense_BALLISTIC_MULTIPLIER_EN) */
 370:Generated_Source\PSoC4/CapSense_Structure.c **** 
 371:Generated_Source\PSoC4/CapSense_Structure.c ****     #if (0u != CapSense_CSX_EN) || (0 != CapSense_CSD_IDAC_COMP_EN)
 372:Generated_Source\PSoC4/CapSense_Structure.c ****         /* Initialize IDAC data */
 373:Generated_Source\PSoC4/CapSense_Structure.c ****         ptrFlashWdgt = CapSense_dsFlash.wdgtArray;
ARM GAS  C:\Users\mstai\AppData\Local\Temp\ccDx5aab.s 			page 8


 374:Generated_Source\PSoC4/CapSense_Structure.c **** 
 375:Generated_Source\PSoC4/CapSense_Structure.c ****         for (wdgtId = CapSense_TOTAL_WIDGETS; wdgtId-- > 0u; )
 376:Generated_Source\PSoC4/CapSense_Structure.c ****         {
 377:Generated_Source\PSoC4/CapSense_Structure.c ****             ptrSnsTmp = ptrFlashWdgt->ptr2SnsRam;
 378:Generated_Source\PSoC4/CapSense_Structure.c **** 
 379:Generated_Source\PSoC4/CapSense_Structure.c ****             for (snsId = CapSense_GET_SNS_CNT_BY_PTR(ptrFlashWdgt); snsId-- > 0u;)
 380:Generated_Source\PSoC4/CapSense_Structure.c ****             {
 381:Generated_Source\PSoC4/CapSense_Structure.c ****                 ptrSnsTmp->idacComp[0u] = *ptrIdacInit;
 382:Generated_Source\PSoC4/CapSense_Structure.c ****                 ptrIdacInit++;
 383:Generated_Source\PSoC4/CapSense_Structure.c **** 
 384:Generated_Source\PSoC4/CapSense_Structure.c ****                 #if (0u != CapSense_MULTI_FREQ_SCAN_EN)
 385:Generated_Source\PSoC4/CapSense_Structure.c ****                     ptrSnsTmp->idacComp[1u] = *ptrIdacInit;
 386:Generated_Source\PSoC4/CapSense_Structure.c ****                     ptrIdacInit++;
 387:Generated_Source\PSoC4/CapSense_Structure.c **** 
 388:Generated_Source\PSoC4/CapSense_Structure.c ****                     ptrSnsTmp->idacComp[2u] = *ptrIdacInit;
 389:Generated_Source\PSoC4/CapSense_Structure.c ****                     ptrIdacInit++;
 390:Generated_Source\PSoC4/CapSense_Structure.c ****                 #endif /* #if (0u != CapSense_MULTI_FREQ_SCAN_EN) */
 391:Generated_Source\PSoC4/CapSense_Structure.c **** 
 392:Generated_Source\PSoC4/CapSense_Structure.c ****                 ptrSnsTmp++;
 393:Generated_Source\PSoC4/CapSense_Structure.c ****             }
 394:Generated_Source\PSoC4/CapSense_Structure.c **** 
 395:Generated_Source\PSoC4/CapSense_Structure.c ****             ptrFlashWdgt++; /* Move to next widget */
 396:Generated_Source\PSoC4/CapSense_Structure.c ****         }
 397:Generated_Source\PSoC4/CapSense_Structure.c ****     #endif /*(0u != CapSense_CSX_EN) || (0 != CapSense_CSD_IDAC_COMP_EN)*/
 398:Generated_Source\PSoC4/CapSense_Structure.c **** 
 399:Generated_Source\PSoC4/CapSense_Structure.c ****     #if ((CapSense_ENABLE == CapSense_CSX_EN) && \
 400:Generated_Source\PSoC4/CapSense_Structure.c ****          (CapSense_ENABLE == CapSense_CSX_SKIP_OVSMPL_SPECIFIC_NODES))
 401:Generated_Source\PSoC4/CapSense_Structure.c ****         /* Initialize Sub-Conversion Number for each node of each CSX widget */
 402:Generated_Source\PSoC4/CapSense_Structure.c ****         ptrFlashWdgt = CapSense_dsFlash.wdgtArray;
 403:Generated_Source\PSoC4/CapSense_Structure.c ****         for (wdgtId = CapSense_TOTAL_WIDGETS; wdgtId-- > 0u;)
 404:Generated_Source\PSoC4/CapSense_Structure.c ****         {
 405:Generated_Source\PSoC4/CapSense_Structure.c ****             /* Check for widget sense method */
 406:Generated_Source\PSoC4/CapSense_Structure.c ****             if (CapSense_SENSE_METHOD_CSX_E == CapSense_GET_SENSE_METHOD(ptrFlashWdgt))
 407:Generated_Source\PSoC4/CapSense_Structure.c ****             {
 408:Generated_Source\PSoC4/CapSense_Structure.c ****                 /* Take the sub-convesion number of a CSX widget and initialize each node of this w
 409:Generated_Source\PSoC4/CapSense_Structure.c ****                 subConvNumber = ((CapSense_RAM_WD_BASE_STRUCT *)(ptrFlashWdgt->ptr2WdgtRam))->resol
 410:Generated_Source\PSoC4/CapSense_Structure.c ****                 ptrSnsTmp = ptrFlashWdgt->ptr2SnsRam;
 411:Generated_Source\PSoC4/CapSense_Structure.c ****                 for (snsId = CapSense_GET_SNS_CNT_BY_PTR(ptrFlashWdgt); snsId-- > 0u;)
 412:Generated_Source\PSoC4/CapSense_Structure.c ****                 {
 413:Generated_Source\PSoC4/CapSense_Structure.c ****                     ptrSnsTmp->subConvNum = subConvNumber;
 414:Generated_Source\PSoC4/CapSense_Structure.c ****                     ptrSnsTmp++;
 415:Generated_Source\PSoC4/CapSense_Structure.c ****                 }
 416:Generated_Source\PSoC4/CapSense_Structure.c ****             }
 417:Generated_Source\PSoC4/CapSense_Structure.c ****             /* Move to the next widget */
 418:Generated_Source\PSoC4/CapSense_Structure.c ****             ptrFlashWdgt++;
 419:Generated_Source\PSoC4/CapSense_Structure.c ****         }
 420:Generated_Source\PSoC4/CapSense_Structure.c ****     #endif /* ((CapSense_ENABLE == CapSense_CSX_EN) && \
 421:Generated_Source\PSoC4/CapSense_Structure.c ****                (CapSense_ENABLE == CapSense_CSX_SKIP_OVSMPL_SPECIFIC_NODES)) */
 422:Generated_Source\PSoC4/CapSense_Structure.c **** 
 423:Generated_Source\PSoC4/CapSense_Structure.c ****     #if (0u != CapSense_ADC_EN)
 424:Generated_Source\PSoC4/CapSense_Structure.c ****         CapSense_AdcDsInitialize();
 425:Generated_Source\PSoC4/CapSense_Structure.c ****     #endif /* (0u != CapSense_ADC_EN) */
 426:Generated_Source\PSoC4/CapSense_Structure.c **** }
 427:Generated_Source\PSoC4/CapSense_Structure.c **** 
 428:Generated_Source\PSoC4/CapSense_Structure.c **** 
 429:Generated_Source\PSoC4/CapSense_Structure.c **** #if (0u != CapSense_ADC_EN)
 430:Generated_Source\PSoC4/CapSense_Structure.c ****     /*******************************************************************************
ARM GAS  C:\Users\mstai\AppData\Local\Temp\ccDx5aab.s 			page 9


 431:Generated_Source\PSoC4/CapSense_Structure.c ****     * Function Name: CapSense_AdcDsInitialize
 432:Generated_Source\PSoC4/CapSense_Structure.c ****     ****************************************************************************//**
 433:Generated_Source\PSoC4/CapSense_Structure.c ****     *
 434:Generated_Source\PSoC4/CapSense_Structure.c ****     * \brief
 435:Generated_Source\PSoC4/CapSense_Structure.c ****     *   Configures the initial Adc datastructure members.
 436:Generated_Source\PSoC4/CapSense_Structure.c ****     *
 437:Generated_Source\PSoC4/CapSense_Structure.c ****     *******************************************************************************/
 438:Generated_Source\PSoC4/CapSense_Structure.c ****     void CapSense_AdcDsInitialize(void)
 439:Generated_Source\PSoC4/CapSense_Structure.c ****     {
 440:Generated_Source\PSoC4/CapSense_Structure.c ****         CapSense_dsRam.adcResolution = CapSense_ADC_RESOLUTION;
 441:Generated_Source\PSoC4/CapSense_Structure.c ****         CapSense_dsRam.adcIdac = (uint8)(CapSense_ADC_IDAC_DEFAULT);
 442:Generated_Source\PSoC4/CapSense_Structure.c ****         CapSense_dsRam.adcActiveCh = CapSense_AdcNO_CHANNEL;
 443:Generated_Source\PSoC4/CapSense_Structure.c ****     }
 444:Generated_Source\PSoC4/CapSense_Structure.c **** #endif /* (0u != CapSense_ADC_EN) */
 445:Generated_Source\PSoC4/CapSense_Structure.c **** 
 446:Generated_Source\PSoC4/CapSense_Structure.c **** 
 447:Generated_Source\PSoC4/CapSense_Structure.c **** /*******************************************************************************
 448:Generated_Source\PSoC4/CapSense_Structure.c **** * Function Name: DsParseParamId
 449:Generated_Source\PSoC4/CapSense_Structure.c **** ****************************************************************************//**
 450:Generated_Source\PSoC4/CapSense_Structure.c **** *
 451:Generated_Source\PSoC4/CapSense_Structure.c **** * \brief
 452:Generated_Source\PSoC4/CapSense_Structure.c **** *   This function parses the parameter ID and checks its correctness.
 453:Generated_Source\PSoC4/CapSense_Structure.c **** *
 454:Generated_Source\PSoC4/CapSense_Structure.c **** * \details
 455:Generated_Source\PSoC4/CapSense_Structure.c **** *   This function checks the parameter CRC if the self-test is enabled,
 456:Generated_Source\PSoC4/CapSense_Structure.c **** *   validates the offset value and parameter type.
 457:Generated_Source\PSoC4/CapSense_Structure.c **** *
 458:Generated_Source\PSoC4/CapSense_Structure.c **** * \param paramId The parameter to parse.
 459:Generated_Source\PSoC4/CapSense_Structure.c **** * \param pData   The pointer to the structure that will hold parsed data.
 460:Generated_Source\PSoC4/CapSense_Structure.c **** *
 461:Generated_Source\PSoC4/CapSense_Structure.c **** * \return CYRET_SUCCESS     If the parameter is valid
 462:Generated_Source\PSoC4/CapSense_Structure.c **** *         CYRET_BAD_PARAM   If the parameter is invalid
 463:Generated_Source\PSoC4/CapSense_Structure.c **** *
 464:Generated_Source\PSoC4/CapSense_Structure.c **** *******************************************************************************/
 465:Generated_Source\PSoC4/CapSense_Structure.c **** static cystatus DsParseParamId(uint32 paramId, PARAM_ID_STRUCT *pData)
 466:Generated_Source\PSoC4/CapSense_Structure.c **** {
  27              		.loc 1 466 0
  28              		.cfi_startproc
  29              		@ args = 0, pretend = 0, frame = 16
  30              		@ frame_needed = 0, uses_anonymous_args = 0
  31              	.LVL0:
  32 0000 F0B5     		push	{r4, r5, r6, r7, lr}
  33              		.cfi_def_cfa_offset 20
  34              		.cfi_offset 4, -20
  35              		.cfi_offset 5, -16
  36              		.cfi_offset 6, -12
  37              		.cfi_offset 7, -8
  38              		.cfi_offset 14, -4
  39 0002 4746     		mov	r7, r8
  40 0004 80B4     		push	{r7}
  41              		.cfi_def_cfa_offset 24
  42              		.cfi_offset 8, -24
  43 0006 84B0     		sub	sp, sp, #16
  44              		.cfi_def_cfa_offset 40
  45 0008 0400     		movs	r4, r0
  46 000a 0E00     		movs	r6, r1
  47              	.LVL1:
ARM GAS  C:\Users\mstai\AppData\Local\Temp\ccDx5aab.s 			page 10


 467:Generated_Source\PSoC4/CapSense_Structure.c ****     cystatus result = CYRET_SUCCESS;
 468:Generated_Source\PSoC4/CapSense_Structure.c **** 
 469:Generated_Source\PSoC4/CapSense_Structure.c ****     #if (0u != CapSense_SELF_TEST_EN)
 470:Generated_Source\PSoC4/CapSense_Structure.c ****         const uint8 crcTable[] =
  48              		.loc 1 470 0
  49 000c 1022     		movs	r2, #16
  50 000e 3449     		ldr	r1, .L22
  51              	.LVL2:
  52 0010 6846     		mov	r0, sp
  53              	.LVL3:
  54 0012 FFF7FEFF 		bl	memcpy
  55              	.LVL4:
 471:Generated_Source\PSoC4/CapSense_Structure.c ****         {
 472:Generated_Source\PSoC4/CapSense_Structure.c ****             0x00u, 0x09u, 0x0Bu, 0x02u, 0x0Fu, 0x06u, 0x04u, 0x0Du,
 473:Generated_Source\PSoC4/CapSense_Structure.c ****             0x07u, 0x0Eu, 0x0Cu, 0x05u, 0x08u, 0x01u, 0x03u, 0x0Au
 474:Generated_Source\PSoC4/CapSense_Structure.c ****         };
 475:Generated_Source\PSoC4/CapSense_Structure.c **** 
 476:Generated_Source\PSoC4/CapSense_Structure.c ****         uint32 i;
 477:Generated_Source\PSoC4/CapSense_Structure.c ****         uint32 actualCrc = 0u;
 478:Generated_Source\PSoC4/CapSense_Structure.c ****         uint32 crcIndex;
 479:Generated_Source\PSoC4/CapSense_Structure.c ****     #endif /* #if (0u != CapSense_SELF_TEST_EN) */
 480:Generated_Source\PSoC4/CapSense_Structure.c **** 
 481:Generated_Source\PSoC4/CapSense_Structure.c ****     /* Extract parameter data */
 482:Generated_Source\PSoC4/CapSense_Structure.c ****     pData->offset     = LO16(paramId);
  56              		.loc 1 482 0
  57 0016 A3B2     		uxth	r3, r4
  58 0018 9C46     		mov	ip, r3
  59 001a 3380     		strh	r3, [r6]
 483:Generated_Source\PSoC4/CapSense_Structure.c ****     pData->affectsCrc = LO8((paramId & PARAM_UBIT_MASK)  >> PARAM_UBIT_OFFSET);
  60              		.loc 1 483 0
  61 001c E50D     		lsrs	r5, r4, #23
  62 001e 0123     		movs	r3, #1
  63 0020 1D40     		ands	r5, r3
  64 0022 F570     		strb	r5, [r6, #3]
 484:Generated_Source\PSoC4/CapSense_Structure.c ****     pData->widgetId   = LO8((paramId & PARAM_WDID_MASK)  >> PARAM_WDID_OFFSET);
  65              		.loc 1 484 0
  66 0024 220C     		lsrs	r2, r4, #16
  67 0026 7F27     		movs	r7, #127
  68 0028 1740     		ands	r7, r2
  69 002a B770     		strb	r7, [r6, #2]
 485:Generated_Source\PSoC4/CapSense_Structure.c ****     pData->type       = LO8((paramId & PARAM_TYPE_MASK)  >> PARAM_TYPE_OFFSET);
  70              		.loc 1 485 0
  71 002c A00F     		lsrs	r0, r4, #30
  72 002e F071     		strb	r0, [r6, #7]
 486:Generated_Source\PSoC4/CapSense_Structure.c ****     pData->flash      = LO8((paramId & PARAM_FBIT_MASK)  >> PARAM_FBIT_OFFSET);
  73              		.loc 1 486 0
  74 0030 210F     		lsrs	r1, r4, #28
  75 0032 1940     		ands	r1, r3
  76 0034 7171     		strb	r1, [r6, #5]
 487:Generated_Source\PSoC4/CapSense_Structure.c ****     pData->rw         = LO8((paramId & PARAM_RWBIT_MASK) >> PARAM_RWBIT_OFFSET);
  77              		.loc 1 487 0
  78 0036 620F     		lsrs	r2, r4, #29
  79 0038 1340     		ands	r3, r2
  80 003a 9846     		mov	r8, r3
  81 003c B371     		strb	r3, [r6, #6]
 488:Generated_Source\PSoC4/CapSense_Structure.c ****     pData->crc        = LO8((paramId & PARAM_CRC_MASK)   >> PARAM_CRC_OFFSET);
  82              		.loc 1 488 0
ARM GAS  C:\Users\mstai\AppData\Local\Temp\ccDx5aab.s 			page 11


  83 003e 230E     		lsrs	r3, r4, #24
  84 0040 0F22     		movs	r2, #15
  85 0042 1340     		ands	r3, r2
  86 0044 3371     		strb	r3, [r6, #4]
  87              	.LVL5:
 477:Generated_Source\PSoC4/CapSense_Structure.c ****         uint32 crcIndex;
  88              		.loc 1 477 0
  89 0046 0026     		movs	r6, #0
  90              	.LVL6:
 489:Generated_Source\PSoC4/CapSense_Structure.c **** 
 490:Generated_Source\PSoC4/CapSense_Structure.c ****     /* Check parameter CRC if self-test is enabled */
 491:Generated_Source\PSoC4/CapSense_Structure.c ****     #if (0u != CapSense_SELF_TEST_EN)
 492:Generated_Source\PSoC4/CapSense_Structure.c **** 
 493:Generated_Source\PSoC4/CapSense_Structure.c ****         /* Calculate CRC for bits 0..24.
 494:Generated_Source\PSoC4/CapSense_Structure.c ****          * The CRC is calculated using nibbles (4-bits).
 495:Generated_Source\PSoC4/CapSense_Structure.c ****          * So for 0..24 bits there are in total 6 nibbles. */
 496:Generated_Source\PSoC4/CapSense_Structure.c ****         for (i = 6u; i > 0u; i--)
  91              		.loc 1 496 0
  92 0048 093A     		subs	r2, r2, #9
  93 004a 06E0     		b	.L2
  94              	.LVL7:
  95              	.L3:
 497:Generated_Source\PSoC4/CapSense_Structure.c ****         {
 498:Generated_Source\PSoC4/CapSense_Structure.c ****             crcIndex = actualCrc ^ (paramId & 0x0Fu);
  96              		.loc 1 498 0 discriminator 3
  97 004c 0F23     		movs	r3, #15
  98 004e 2340     		ands	r3, r4
  99 0050 7340     		eors	r3, r6
 100              	.LVL8:
 499:Generated_Source\PSoC4/CapSense_Structure.c ****             actualCrc = crcTable[crcIndex];
 101              		.loc 1 499 0 discriminator 3
 102 0052 6E46     		mov	r6, sp
 103              	.LVL9:
 104 0054 F65C     		ldrb	r6, [r6, r3]
 105              	.LVL10:
 500:Generated_Source\PSoC4/CapSense_Structure.c ****             paramId >>= 4u;
 106              		.loc 1 500 0 discriminator 3
 107 0056 2409     		lsrs	r4, r4, #4
 108              	.LVL11:
 496:Generated_Source\PSoC4/CapSense_Structure.c ****         {
 109              		.loc 1 496 0 discriminator 3
 110 0058 013A     		subs	r2, r2, #1
 111              	.LVL12:
 112              	.L2:
 496:Generated_Source\PSoC4/CapSense_Structure.c ****         {
 113              		.loc 1 496 0 is_stmt 0 discriminator 1
 114 005a 002A     		cmp	r2, #0
 115 005c F6D1     		bne	.L3
 501:Generated_Source\PSoC4/CapSense_Structure.c ****         }
 502:Generated_Source\PSoC4/CapSense_Structure.c **** 
 503:Generated_Source\PSoC4/CapSense_Structure.c ****         /* Add bits 28..32 */
 504:Generated_Source\PSoC4/CapSense_Structure.c ****         crcIndex = actualCrc ^ ((paramId >> 4u) & 0x0Fu);
 116              		.loc 1 504 0 is_stmt 1
 117 005e 2309     		lsrs	r3, r4, #4
 118 0060 0F32     		adds	r2, r2, #15
 119              	.LVL13:
 120 0062 1340     		ands	r3, r2
ARM GAS  C:\Users\mstai\AppData\Local\Temp\ccDx5aab.s 			page 12


 121 0064 7340     		eors	r3, r6
 122              	.LVL14:
 505:Generated_Source\PSoC4/CapSense_Structure.c ****         actualCrc = crcTable[crcIndex];
 123              		.loc 1 505 0
 124 0066 6E46     		mov	r6, sp
 125              	.LVL15:
 126 0068 F35C     		ldrb	r3, [r6, r3]
 127              	.LVL16:
 506:Generated_Source\PSoC4/CapSense_Structure.c **** 
 507:Generated_Source\PSoC4/CapSense_Structure.c ****         /* Add bits 24..28 (CRC) */
 508:Generated_Source\PSoC4/CapSense_Structure.c ****         crcIndex = actualCrc ^ (paramId & 0x0Fu);
 128              		.loc 1 508 0
 129 006a 1440     		ands	r4, r2
 130              	.LVL17:
 131 006c 5C40     		eors	r4, r3
 132              	.LVL18:
 509:Generated_Source\PSoC4/CapSense_Structure.c ****         actualCrc = crcTable[crcIndex];
 133              		.loc 1 509 0
 134 006e 335D     		ldrb	r3, [r6, r4]
 135              	.LVL19:
 510:Generated_Source\PSoC4/CapSense_Structure.c **** 
 511:Generated_Source\PSoC4/CapSense_Structure.c ****         if (0u != actualCrc)
 136              		.loc 1 511 0
 137 0070 002B     		cmp	r3, #0
 138 0072 00D0     		beq	.L4
 512:Generated_Source\PSoC4/CapSense_Structure.c ****         {
 513:Generated_Source\PSoC4/CapSense_Structure.c ****             /* CRC mismatch */
 514:Generated_Source\PSoC4/CapSense_Structure.c ****             result = CYRET_BAD_PARAM;
 139              		.loc 1 514 0
 140 0074 0123     		movs	r3, #1
 141              	.LVL20:
 142              	.L4:
 515:Generated_Source\PSoC4/CapSense_Structure.c ****         }
 516:Generated_Source\PSoC4/CapSense_Structure.c **** 
 517:Generated_Source\PSoC4/CapSense_Structure.c ****         if ((CYRET_SUCCESS == result) &&
 143              		.loc 1 517 0
 144 0076 002B     		cmp	r3, #0
 145 0078 04D1     		bne	.L5
 146              		.loc 1 517 0 is_stmt 0 discriminator 1
 147 007a 002D     		cmp	r5, #0
 148 007c 02D0     		beq	.L5
 518:Generated_Source\PSoC4/CapSense_Structure.c ****             (0u != pData->affectsCrc) && (pData->widgetId >= CapSense_TOTAL_WIDGETS ))
 149              		.loc 1 518 0 is_stmt 1
 150 007e 002F     		cmp	r7, #0
 151 0080 00D0     		beq	.L5
 519:Generated_Source\PSoC4/CapSense_Structure.c ****         {
 520:Generated_Source\PSoC4/CapSense_Structure.c ****             /* Wrong widgetId for protected parameter */
 521:Generated_Source\PSoC4/CapSense_Structure.c ****             result = CYRET_BAD_PARAM;
 152              		.loc 1 521 0
 153 0082 0133     		adds	r3, r3, #1
 154              	.LVL21:
 155              	.L5:
 522:Generated_Source\PSoC4/CapSense_Structure.c ****         }
 523:Generated_Source\PSoC4/CapSense_Structure.c **** 
 524:Generated_Source\PSoC4/CapSense_Structure.c ****         /* Check offset value range */
 525:Generated_Source\PSoC4/CapSense_Structure.c ****         if (CYRET_SUCCESS == result)
 156              		.loc 1 525 0
ARM GAS  C:\Users\mstai\AppData\Local\Temp\ccDx5aab.s 			page 13


 157 0084 002B     		cmp	r3, #0
 158 0086 10D1     		bne	.L6
 526:Generated_Source\PSoC4/CapSense_Structure.c ****         {
 527:Generated_Source\PSoC4/CapSense_Structure.c ****             if (0u == pData->flash)
 159              		.loc 1 527 0
 160 0088 0029     		cmp	r1, #0
 161 008a 03D1     		bne	.L7
 528:Generated_Source\PSoC4/CapSense_Structure.c ****             {
 529:Generated_Source\PSoC4/CapSense_Structure.c ****                 /* Check offset for RAM Data Structure range */
 530:Generated_Source\PSoC4/CapSense_Structure.c ****                 if (pData->offset >= sizeof(CapSense_dsRam))
 162              		.loc 1 530 0
 163 008c 6246     		mov	r2, ip
 164              	.LVL22:
 165 008e 832A     		cmp	r2, #131
 166 0090 08D8     		bhi	.L15
 167 0092 0AE0     		b	.L6
 168              	.LVL23:
 169              	.L7:
 531:Generated_Source\PSoC4/CapSense_Structure.c ****                 {
 532:Generated_Source\PSoC4/CapSense_Structure.c ****                     result = CYRET_BAD_PARAM;
 533:Generated_Source\PSoC4/CapSense_Structure.c ****                 }
 534:Generated_Source\PSoC4/CapSense_Structure.c ****             }
 535:Generated_Source\PSoC4/CapSense_Structure.c ****             else
 536:Generated_Source\PSoC4/CapSense_Structure.c ****             {
 537:Generated_Source\PSoC4/CapSense_Structure.c ****                 /* Check offset for Flash Data Structure range */
 538:Generated_Source\PSoC4/CapSense_Structure.c ****                 if (pData->offset >= sizeof(CapSense_dsFlash))
 170              		.loc 1 538 0
 171 0094 6246     		mov	r2, ip
 172              	.LVL24:
 173 0096 1F2A     		cmp	r2, #31
 174 0098 00D9     		bls	.L8
 539:Generated_Source\PSoC4/CapSense_Structure.c ****                 {
 540:Generated_Source\PSoC4/CapSense_Structure.c ****                     result = CYRET_BAD_PARAM;
 175              		.loc 1 540 0
 176 009a 0123     		movs	r3, #1
 177              	.LVL25:
 178              	.L8:
 541:Generated_Source\PSoC4/CapSense_Structure.c ****                 }
 542:Generated_Source\PSoC4/CapSense_Structure.c **** 
 543:Generated_Source\PSoC4/CapSense_Structure.c ****                 /* Check if it is marked as Read Only */
 544:Generated_Source\PSoC4/CapSense_Structure.c ****                 if (0u != pData->rw)
 179              		.loc 1 544 0
 180 009c 4246     		mov	r2, r8
 181 009e 002A     		cmp	r2, #0
 182 00a0 02D1     		bne	.L17
 183 00a2 02E0     		b	.L6
 184              	.L15:
 532:Generated_Source\PSoC4/CapSense_Structure.c ****                 }
 185              		.loc 1 532 0
 186 00a4 0123     		movs	r3, #1
 187              	.LVL26:
 188 00a6 00E0     		b	.L6
 189              	.LVL27:
 190              	.L17:
 545:Generated_Source\PSoC4/CapSense_Structure.c ****                 {
 546:Generated_Source\PSoC4/CapSense_Structure.c ****                     result = CYRET_BAD_PARAM;
 191              		.loc 1 546 0
ARM GAS  C:\Users\mstai\AppData\Local\Temp\ccDx5aab.s 			page 14


 192 00a8 0123     		movs	r3, #1
 193              	.LVL28:
 194              	.L6:
 547:Generated_Source\PSoC4/CapSense_Structure.c ****                 }
 548:Generated_Source\PSoC4/CapSense_Structure.c ****             }
 549:Generated_Source\PSoC4/CapSense_Structure.c ****         }
 550:Generated_Source\PSoC4/CapSense_Structure.c ****     #else /* #if (0u != CapSense_SELF_TEST_EN) */
 551:Generated_Source\PSoC4/CapSense_Structure.c ****         /* Check offset value range */
 552:Generated_Source\PSoC4/CapSense_Structure.c ****         if (0u == pData->flash)
 553:Generated_Source\PSoC4/CapSense_Structure.c ****         {
 554:Generated_Source\PSoC4/CapSense_Structure.c ****             /* Check offset for RAM Data Structure range */
 555:Generated_Source\PSoC4/CapSense_Structure.c ****             if (pData->offset >= sizeof(CapSense_dsRam))
 556:Generated_Source\PSoC4/CapSense_Structure.c ****             {
 557:Generated_Source\PSoC4/CapSense_Structure.c ****                 result = CYRET_BAD_PARAM;
 558:Generated_Source\PSoC4/CapSense_Structure.c ****             }
 559:Generated_Source\PSoC4/CapSense_Structure.c ****         }
 560:Generated_Source\PSoC4/CapSense_Structure.c ****         else
 561:Generated_Source\PSoC4/CapSense_Structure.c ****         {
 562:Generated_Source\PSoC4/CapSense_Structure.c ****             /* Check offset for Flash Data Structure range */
 563:Generated_Source\PSoC4/CapSense_Structure.c ****             if (pData->offset >= sizeof(CapSense_dsFlash))
 564:Generated_Source\PSoC4/CapSense_Structure.c ****             {
 565:Generated_Source\PSoC4/CapSense_Structure.c ****                 result = CYRET_BAD_PARAM;
 566:Generated_Source\PSoC4/CapSense_Structure.c ****             }
 567:Generated_Source\PSoC4/CapSense_Structure.c **** 
 568:Generated_Source\PSoC4/CapSense_Structure.c ****             /* Check if it is marked as Read Only */
 569:Generated_Source\PSoC4/CapSense_Structure.c ****             if (0u != pData->rw)
 570:Generated_Source\PSoC4/CapSense_Structure.c ****             {
 571:Generated_Source\PSoC4/CapSense_Structure.c ****                 result = CYRET_BAD_PARAM;
 572:Generated_Source\PSoC4/CapSense_Structure.c ****             }
 573:Generated_Source\PSoC4/CapSense_Structure.c ****         }
 574:Generated_Source\PSoC4/CapSense_Structure.c ****     #endif /* #if (0u != CapSense_SELF_TEST_EN) */
 575:Generated_Source\PSoC4/CapSense_Structure.c **** 
 576:Generated_Source\PSoC4/CapSense_Structure.c ****     if (CYRET_SUCCESS == result)
 195              		.loc 1 576 0
 196 00aa 002B     		cmp	r3, #0
 197 00ac 13D1     		bne	.L9
 577:Generated_Source\PSoC4/CapSense_Structure.c ****     {
 578:Generated_Source\PSoC4/CapSense_Structure.c ****         /* Check parameter type, offset alignment */
 579:Generated_Source\PSoC4/CapSense_Structure.c ****         switch (pData->type)
 198              		.loc 1 579 0
 199 00ae 0228     		cmp	r0, #2
 200 00b0 04D0     		beq	.L10
 201 00b2 0328     		cmp	r0, #3
 202 00b4 06D0     		beq	.L11
 203 00b6 0128     		cmp	r0, #1
 204 00b8 08D1     		bne	.L21
 205 00ba 0CE0     		b	.L9
 206              	.L10:
 580:Generated_Source\PSoC4/CapSense_Structure.c ****         {
 581:Generated_Source\PSoC4/CapSense_Structure.c ****         case DS_PARAM_TYPE_UINT16:
 582:Generated_Source\PSoC4/CapSense_Structure.c ****             if (0u != (pData->offset & UINT16_ALIGN_MASK))
 207              		.loc 1 582 0
 208 00bc 6246     		mov	r2, ip
 209 00be D207     		lsls	r2, r2, #31
 210 00c0 06D4     		bmi	.L19
 211 00c2 08E0     		b	.L9
 212              	.L11:
ARM GAS  C:\Users\mstai\AppData\Local\Temp\ccDx5aab.s 			page 15


 583:Generated_Source\PSoC4/CapSense_Structure.c ****             {
 584:Generated_Source\PSoC4/CapSense_Structure.c ****                 result = CYRET_BAD_PARAM;
 585:Generated_Source\PSoC4/CapSense_Structure.c ****             }
 586:Generated_Source\PSoC4/CapSense_Structure.c ****             break;
 587:Generated_Source\PSoC4/CapSense_Structure.c **** 
 588:Generated_Source\PSoC4/CapSense_Structure.c ****         case DS_PARAM_TYPE_UINT32:
 589:Generated_Source\PSoC4/CapSense_Structure.c ****             if (0u != (pData->offset & UINT32_ALIGN_MASK))
 213              		.loc 1 589 0
 214 00c4 6246     		mov	r2, ip
 215 00c6 9207     		lsls	r2, r2, #30
 216 00c8 04D1     		bne	.L20
 217 00ca 04E0     		b	.L9
 218              	.L21:
 590:Generated_Source\PSoC4/CapSense_Structure.c ****             {
 591:Generated_Source\PSoC4/CapSense_Structure.c ****                 result = CYRET_BAD_PARAM;
 592:Generated_Source\PSoC4/CapSense_Structure.c ****             }
 593:Generated_Source\PSoC4/CapSense_Structure.c ****             break;
 594:Generated_Source\PSoC4/CapSense_Structure.c **** 
 595:Generated_Source\PSoC4/CapSense_Structure.c ****         case DS_PARAM_TYPE_UINT8:
 596:Generated_Source\PSoC4/CapSense_Structure.c ****             break;
 597:Generated_Source\PSoC4/CapSense_Structure.c **** 
 598:Generated_Source\PSoC4/CapSense_Structure.c ****         default:
 599:Generated_Source\PSoC4/CapSense_Structure.c ****             result = CYRET_BAD_PARAM;
 219              		.loc 1 599 0
 220 00cc 0123     		movs	r3, #1
 221              	.LVL29:
 222 00ce 02E0     		b	.L9
 223              	.LVL30:
 224              	.L19:
 584:Generated_Source\PSoC4/CapSense_Structure.c ****             }
 225              		.loc 1 584 0
 226 00d0 0123     		movs	r3, #1
 227              	.LVL31:
 228 00d2 00E0     		b	.L9
 229              	.LVL32:
 230              	.L20:
 591:Generated_Source\PSoC4/CapSense_Structure.c ****             }
 231              		.loc 1 591 0
 232 00d4 0123     		movs	r3, #1
 233              	.LVL33:
 234              	.L9:
 600:Generated_Source\PSoC4/CapSense_Structure.c ****             break;
 601:Generated_Source\PSoC4/CapSense_Structure.c ****         }
 602:Generated_Source\PSoC4/CapSense_Structure.c ****     }
 603:Generated_Source\PSoC4/CapSense_Structure.c **** 
 604:Generated_Source\PSoC4/CapSense_Structure.c ****     return result;
 605:Generated_Source\PSoC4/CapSense_Structure.c **** }
 235              		.loc 1 605 0
 236 00d6 1800     		movs	r0, r3
 237 00d8 04B0     		add	sp, sp, #16
 238              	.LVL34:
 239              		@ sp needed
 240              	.LVL35:
 241 00da 04BC     		pop	{r2}
 242 00dc 9046     		mov	r8, r2
 243 00de F0BD     		pop	{r4, r5, r6, r7, pc}
 244              	.L23:
ARM GAS  C:\Users\mstai\AppData\Local\Temp\ccDx5aab.s 			page 16


 245              		.align	2
 246              	.L22:
 247 00e0 00000000 		.word	.LANCHOR0
 248              		.cfi_endproc
 249              	.LFE2:
 250              		.size	DsParseParamId, .-DsParseParamId
 251              		.section	.text.CapSense_DsInitialize,"ax",%progbits
 252              		.align	2
 253              		.global	CapSense_DsInitialize
 254              		.code	16
 255              		.thumb_func
 256              		.type	CapSense_DsInitialize, %function
 257              	CapSense_DsInitialize:
 258              	.LFB1:
 249:Generated_Source\PSoC4/CapSense_Structure.c ****     #if ((CapSense_ENABLE == CapSense_CSX_EN) || \
 259              		.loc 1 249 0
 260              		.cfi_startproc
 261              		@ args = 0, pretend = 0, frame = 0
 262              		@ frame_needed = 0, uses_anonymous_args = 0
 263 0000 70B5     		push	{r4, r5, r6, lr}
 264              		.cfi_def_cfa_offset 16
 265              		.cfi_offset 4, -16
 266              		.cfi_offset 5, -12
 267              		.cfi_offset 6, -8
 268              		.cfi_offset 14, -4
 269              	.LVL36:
 270:Generated_Source\PSoC4/CapSense_Structure.c **** 
 270              		.loc 1 270 0
 271 0002 314C     		ldr	r4, .L29
 272 0004 8422     		movs	r2, #132
 273 0006 0021     		movs	r1, #0
 274 0008 2000     		movs	r0, r4
 275 000a FFF7FEFF 		bl	memset
 276              	.LVL37:
 273:Generated_Source\PSoC4/CapSense_Structure.c ****     CapSense_dsRam.deviceId = CapSense_DEVICE_ID;
 277              		.loc 1 273 0
 278 000e 2F4B     		ldr	r3, .L29+4
 279 0010 2380     		strh	r3, [r4]
 274:Generated_Source\PSoC4/CapSense_Structure.c ****     CapSense_dsRam.hwClock = CapSense_HW_CLOCK;
 280              		.loc 1 274 0
 281 0012 9023     		movs	r3, #144
 282 0014 1B01     		lsls	r3, r3, #4
 283 0016 6380     		strh	r3, [r4, #2]
 275:Generated_Source\PSoC4/CapSense_Structure.c **** 
 284              		.loc 1 275 0
 285 0018 2D4B     		ldr	r3, .L29+8
 286 001a A380     		strh	r3, [r4, #4]
 278:Generated_Source\PSoC4/CapSense_Structure.c **** 
 287              		.loc 1 278 0
 288 001c 0823     		movs	r3, #8
 289 001e E383     		strh	r3, [r4, #30]
 280:Generated_Source\PSoC4/CapSense_Structure.c ****     #if (0u != CapSense_TOTAL_CSD_WIDGETS)
 290              		.loc 1 280 0
 291 0020 0322     		movs	r2, #3
 292 0022 7B33     		adds	r3, r3, #123
 293 0024 E254     		strb	r2, [r4, r3]
 282:Generated_Source\PSoC4/CapSense_Structure.c ****         CapSense_dsRam.scanCsdISC = CapSense_CSD_INACTIVE_SNS_CONNECTION;
ARM GAS  C:\Users\mstai\AppData\Local\Temp\ccDx5aab.s 			page 17


 294              		.loc 1 282 0
 295 0026 1D32     		adds	r2, r2, #29
 296 0028 0120     		movs	r0, #1
 297 002a A054     		strb	r0, [r4, r2]
 305:Generated_Source\PSoC4/CapSense_Structure.c ****         CapSense_dsRam.selfTestConfig.fineInitTime = (uint8)CapSense_TST_FINE_INIT_TIME;
 298              		.loc 1 305 0
 299 002c 294B     		ldr	r3, .L29+12
 300 002e 6384     		strh	r3, [r4, #34]
 306:Generated_Source\PSoC4/CapSense_Structure.c ****         CapSense_dsRam.selfTestConfig.startupDelay = CapSense_TST_ANALOG_STARTUP_DELAY_US;
 301              		.loc 1 306 0
 302 0030 0A23     		movs	r3, #10
 303 0032 7321     		movs	r1, #115
 304 0034 6354     		strb	r3, [r4, r1]
 307:Generated_Source\PSoC4/CapSense_Structure.c **** 
 305              		.loc 1 307 0
 306 0036 1725     		movs	r5, #23
 307 0038 0139     		subs	r1, r1, #1
 308 003a 6554     		strb	r5, [r4, r1]
 310:Generated_Source\PSoC4/CapSense_Structure.c ****         #endif
 309              		.loc 1 310 0
 310 003c 153D     		subs	r5, r5, #21
 311 003e 0231     		adds	r1, r1, #2
 312 0040 6554     		strb	r5, [r4, r1]
 315:Generated_Source\PSoC4/CapSense_Structure.c ****             CapSense_dsRam.selfTestConfig.snsCapSnsClkHz = CapSense_TST_SNS_CAP_SNS_CLK_HZ;
 313              		.loc 1 315 0
 314 0042 1839     		subs	r1, r1, #24
 315 0044 6252     		strh	r2, [r4, r1]
 316:Generated_Source\PSoC4/CapSense_Structure.c ****             CapSense_dsRam.selfTestConfig.snsCapResolution = CapSense_TST_SNS_CAP_RESOLUTION;
 316              		.loc 1 316 0
 317 0046 244A     		ldr	r2, .L29+16
 318 0048 A265     		str	r2, [r4, #88]
 317:Generated_Source\PSoC4/CapSense_Structure.c ****             CapSense_dsRam.selfTestConfig.snsCapVrefGain = CapSense_TST_SNS_CAP_VREF_GAIN ;
 319              		.loc 1 317 0
 320 004a 5039     		subs	r1, r1, #80
 321 004c 6C22     		movs	r2, #108
 322 004e A154     		strb	r1, [r4, r2]
 318:Generated_Source\PSoC4/CapSense_Structure.c ****             CapSense_dsRam.selfTestConfig.snsCapVrefVoltage = CapSense_TST_SNS_CAP_VREF_MV;
 323              		.loc 1 318 0
 324 0050 1331     		adds	r1, r1, #19
 325 0052 0132     		adds	r2, r2, #1
 326 0054 A154     		strb	r1, [r4, r2]
 319:Generated_Source\PSoC4/CapSense_Structure.c ****             CapSense_dsRam.selfTestConfig.snsCapModClkDivider = CapSense_TST_MOD_CLK_DIVIDER ;
 327              		.loc 1 319 0
 328 0056 9622     		movs	r2, #150
 329 0058 D200     		lsls	r2, r2, #3
 330 005a 6035     		adds	r5, r5, #96
 331 005c 6253     		strh	r2, [r4, r5]
 320:Generated_Source\PSoC4/CapSense_Structure.c ****             CapSense_dsRam.selfTestConfig.snsCapModClkKHz = CapSense_TST_MOD_CLK_KHZ ;
 332              		.loc 1 320 0
 333 005e 023D     		subs	r5, r5, #2
 334 0060 6053     		strh	r0, [r4, r5]
 321:Generated_Source\PSoC4/CapSense_Structure.c ****         #endif /* ((0u != CapSense_TST_SNS_CAP_EN) ||
 335              		.loc 1 321 0
 336 0062 1E4D     		ldr	r5, .L29+20
 337 0064 5D30     		adds	r0, r0, #93
 338 0066 2552     		strh	r5, [r4, r0]
 341:Generated_Source\PSoC4/CapSense_Structure.c ****             CapSense_dsRam.selfTestConfig.extCapVrefVoltage = CapSense_TST_EXT_CAP_VREF_MV;
ARM GAS  C:\Users\mstai\AppData\Local\Temp\ccDx5aab.s 			page 18


 339              		.loc 1 341 0
 340 0068 1330     		adds	r0, r0, #19
 341 006a 2154     		strb	r1, [r4, r0]
 342:Generated_Source\PSoC4/CapSense_Structure.c ****         #endif /* #if (0u != CapSense_TST_EXTERNAL_CAP_EN) */
 342              		.loc 1 342 0
 343 006c 4731     		adds	r1, r1, #71
 344 006e 6252     		strh	r2, [r4, r1]
 346:Generated_Source\PSoC4/CapSense_Structure.c ****             CapSense_dsRam.selfTestConfig.vddaModClkDivider = CapSense_TST_VDDA_MOD_CLK_DIVIDER;
 345              		.loc 1 346 0
 346 0070 6A22     		movs	r2, #106
 347 0072 A354     		strb	r3, [r4, r2]
 347:Generated_Source\PSoC4/CapSense_Structure.c **** 
 348              		.loc 1 347 0
 349 0074 5E33     		adds	r3, r3, #94
 350 0076 0122     		movs	r2, #1
 351 0078 E254     		strb	r2, [r4, r3]
 349:Generated_Source\PSoC4/CapSense_Structure.c ****             CapSense_dsRam.selfTestConfig.vddaVrefVoltage = CapSense_TST_VDDA_VREF_MV;
 352              		.loc 1 349 0
 353 007a 0D22     		movs	r2, #13
 354 007c 0133     		adds	r3, r3, #1
 355 007e E254     		strb	r2, [r4, r3]
 350:Generated_Source\PSoC4/CapSense_Structure.c ****         #endif /* #if (0u != CapSense_TST_VDDA_EN) */
 356              		.loc 1 350 0
 357 0080 174A     		ldr	r2, .L29+24
 358 0082 053B     		subs	r3, r3, #5
 359 0084 E252     		strh	r2, [r4, r3]
 356:Generated_Source\PSoC4/CapSense_Structure.c **** 
 360              		.loc 1 356 0
 361 0086 174B     		ldr	r3, .L29+28
 362 0088 2434     		adds	r4, r4, #36
 363 008a 1A00     		movs	r2, r3
 364 008c 3432     		adds	r2, r2, #52
 365 008e 23CA     		ldmia	r2!, {r0, r1, r5}
 366 0090 23C4     		stmia	r4!, {r0, r1, r5}
 367 0092 1168     		ldr	r1, [r2]
 368 0094 2160     		str	r1, [r4]
 369 0096 9288     		ldrh	r2, [r2, #4]
 370 0098 A280     		strh	r2, [r4, #4]
 371              	.LVL38:
 266:Generated_Source\PSoC4/CapSense_Structure.c ****     #endif
 372              		.loc 1 266 0
 373 009a 1A00     		movs	r2, r3
 374 009c 1032     		adds	r2, r2, #16
 373:Generated_Source\PSoC4/CapSense_Structure.c **** 
 375              		.loc 1 373 0
 376 009e 1433     		adds	r3, r3, #20
 377 00a0 1C00     		movs	r4, r3
 375:Generated_Source\PSoC4/CapSense_Structure.c ****         {
 378              		.loc 1 375 0
 379 00a2 0123     		movs	r3, #1
 380 00a4 0CE0     		b	.L25
 381              	.LVL39:
 382              	.L28:
 377:Generated_Source\PSoC4/CapSense_Structure.c **** 
 383              		.loc 1 377 0
 384 00a6 A168     		ldr	r1, [r4, #8]
 385              	.LVL40:
ARM GAS  C:\Users\mstai\AppData\Local\Temp\ccDx5aab.s 			page 19


 379:Generated_Source\PSoC4/CapSense_Structure.c ****             {
 386              		.loc 1 379 0
 387 00a8 238B     		ldrh	r3, [r4, #24]
 388              	.LVL41:
 389 00aa 04E0     		b	.L26
 390              	.LVL42:
 391              	.L27:
 381:Generated_Source\PSoC4/CapSense_Structure.c ****                 ptrIdacInit++;
 392              		.loc 1 381 0
 393 00ac 1378     		ldrb	r3, [r2]
 394 00ae CB72     		strb	r3, [r1, #11]
 382:Generated_Source\PSoC4/CapSense_Structure.c **** 
 395              		.loc 1 382 0
 396 00b0 0132     		adds	r2, r2, #1
 397              	.LVL43:
 392:Generated_Source\PSoC4/CapSense_Structure.c ****             }
 398              		.loc 1 392 0
 399 00b2 0C31     		adds	r1, r1, #12
 400              	.LVL44:
 379:Generated_Source\PSoC4/CapSense_Structure.c ****             {
 401              		.loc 1 379 0
 402 00b4 0300     		movs	r3, r0
 403              	.LVL45:
 404              	.L26:
 379:Generated_Source\PSoC4/CapSense_Structure.c ****             {
 405              		.loc 1 379 0 is_stmt 0 discriminator 1
 406 00b6 581E     		subs	r0, r3, #1
 407              	.LVL46:
 408 00b8 002B     		cmp	r3, #0
 409 00ba F7D1     		bne	.L27
 395:Generated_Source\PSoC4/CapSense_Structure.c ****         }
 410              		.loc 1 395 0 is_stmt 1
 411 00bc 2034     		adds	r4, r4, #32
 412              	.LVL47:
 375:Generated_Source\PSoC4/CapSense_Structure.c ****         {
 413              		.loc 1 375 0
 414 00be 2B00     		movs	r3, r5
 415              	.LVL48:
 416              	.L25:
 375:Generated_Source\PSoC4/CapSense_Structure.c ****         {
 417              		.loc 1 375 0 is_stmt 0 discriminator 1
 418 00c0 5D1E     		subs	r5, r3, #1
 419              	.LVL49:
 420 00c2 002B     		cmp	r3, #0
 421 00c4 EFD1     		bne	.L28
 426:Generated_Source\PSoC4/CapSense_Structure.c **** 
 422              		.loc 1 426 0 is_stmt 1
 423              		@ sp needed
 424              	.LVL50:
 425              	.LVL51:
 426 00c6 70BD     		pop	{r4, r5, r6, pc}
 427              	.L30:
 428              		.align	2
 429              	.L29:
 430 00c8 00000000 		.word	CapSense_dsRam
 431 00cc 4C5F0000 		.word	24396
 432 00d0 DC050000 		.word	1500
ARM GAS  C:\Users\mstai\AppData\Local\Temp\ccDx5aab.s 			page 20


 433 00d4 44740000 		.word	29764
 434 00d8 D8B80500 		.word	375000
 435 00dc E02E0000 		.word	12000
 436 00e0 B70A0000 		.word	2743
 437 00e4 00000000 		.word	.LANCHOR0
 438              		.cfi_endproc
 439              	.LFE1:
 440              		.size	CapSense_DsInitialize, .-CapSense_DsInitialize
 441              		.section	.text.CapSense_GetParam,"ax",%progbits
 442              		.align	2
 443              		.global	CapSense_GetParam
 444              		.code	16
 445              		.thumb_func
 446              		.type	CapSense_GetParam, %function
 447              	CapSense_GetParam:
 448              	.LFB3:
 606:Generated_Source\PSoC4/CapSense_Structure.c **** 
 607:Generated_Source\PSoC4/CapSense_Structure.c **** /*******************************************************************************
 608:Generated_Source\PSoC4/CapSense_Structure.c **** * Function Name: CapSense_GetParam
 609:Generated_Source\PSoC4/CapSense_Structure.c **** ****************************************************************************//**
 610:Generated_Source\PSoC4/CapSense_Structure.c **** *
 611:Generated_Source\PSoC4/CapSense_Structure.c **** * \brief
 612:Generated_Source\PSoC4/CapSense_Structure.c **** *  Gets the specified parameter value from the \ref group_structures.
 613:Generated_Source\PSoC4/CapSense_Structure.c **** *
 614:Generated_Source\PSoC4/CapSense_Structure.c **** * \details
 615:Generated_Source\PSoC4/CapSense_Structure.c **** *  This function gets the value of the specified parameter by the paramId
 616:Generated_Source\PSoC4/CapSense_Structure.c **** *  argument. The paramId for each register is available in the
 617:Generated_Source\PSoC4/CapSense_Structure.c **** *  CapSense RegisterMap header file as
 618:Generated_Source\PSoC4/CapSense_Structure.c **** *  CapSense_<ParameterName>_PARAM_ID. The paramId is a special
 619:Generated_Source\PSoC4/CapSense_Structure.c **** *  enumerated value generated by the customizer. The format of paramId is as
 620:Generated_Source\PSoC4/CapSense_Structure.c **** *  follows:
 621:Generated_Source\PSoC4/CapSense_Structure.c **** *    1. [ byte 3 byte 2 byte 1 byte 0 ]
 622:Generated_Source\PSoC4/CapSense_Structure.c **** *    2. [ TTWFCCCC UIIIIIII MMMMMMMM LLLLLLLL ]
 623:Generated_Source\PSoC4/CapSense_Structure.c **** *    3. T - encodes the parameter type:
 624:Generated_Source\PSoC4/CapSense_Structure.c **** *      - 01b: uint8
 625:Generated_Source\PSoC4/CapSense_Structure.c **** *      - 10b: uint16
 626:Generated_Source\PSoC4/CapSense_Structure.c **** *      - 11b: uint32
 627:Generated_Source\PSoC4/CapSense_Structure.c **** *    4. W - indicates whether the parameter is writable:
 628:Generated_Source\PSoC4/CapSense_Structure.c **** *      - 0: ReadOnly
 629:Generated_Source\PSoC4/CapSense_Structure.c **** *      - 1: Read/Write
 630:Generated_Source\PSoC4/CapSense_Structure.c **** *    5. C - 4 bit CRC (X^3 + 1) of the whole paramId word, the C bits are
 631:Generated_Source\PSoC4/CapSense_Structure.c **** *       filled with 0s when the CRC is calculated.
 632:Generated_Source\PSoC4/CapSense_Structure.c **** *    6. U - indicates if the parameter affects the RAM Widget Object CRC.
 633:Generated_Source\PSoC4/CapSense_Structure.c **** *    7. I - specifies that the widgetId parameter belongs to
 634:Generated_Source\PSoC4/CapSense_Structure.c **** *    8. M,L - the parameter offset MSB and LSB accordingly in:
 635:Generated_Source\PSoC4/CapSense_Structure.c **** *      - Flash Data Structure if W bit is 0.
 636:Generated_Source\PSoC4/CapSense_Structure.c **** *      - RAM Data Structure if W bit is 1.
 637:Generated_Source\PSoC4/CapSense_Structure.c **** *
 638:Generated_Source\PSoC4/CapSense_Structure.c **** *  Refer to the \ref group_structures section for details of the data structure
 639:Generated_Source\PSoC4/CapSense_Structure.c **** *  organization and examples of its register access.
 640:Generated_Source\PSoC4/CapSense_Structure.c **** *
 641:Generated_Source\PSoC4/CapSense_Structure.c **** * \param paramId
 642:Generated_Source\PSoC4/CapSense_Structure.c **** *  Specifies the ID of parameter to get its value.
 643:Generated_Source\PSoC4/CapSense_Structure.c **** *  A macro for the parameter ID can be found in the CapSense RegisterMap header
 644:Generated_Source\PSoC4/CapSense_Structure.c **** *  file defined as CapSense_<ParameterName>_PARAM_ID.
 645:Generated_Source\PSoC4/CapSense_Structure.c **** *
 646:Generated_Source\PSoC4/CapSense_Structure.c **** * \param value
ARM GAS  C:\Users\mstai\AppData\Local\Temp\ccDx5aab.s 			page 21


 647:Generated_Source\PSoC4/CapSense_Structure.c **** *  The pointer to a variable to be updated with the obtained value.
 648:Generated_Source\PSoC4/CapSense_Structure.c **** *
 649:Generated_Source\PSoC4/CapSense_Structure.c **** * \return
 650:Generated_Source\PSoC4/CapSense_Structure.c **** *  Returns the status of the operation:
 651:Generated_Source\PSoC4/CapSense_Structure.c **** *    - CYRET_SUCCESS - The operation is successfully completed.
 652:Generated_Source\PSoC4/CapSense_Structure.c **** *    - CYRET_BAD_PARAM - The input parameter is invalid.
 653:Generated_Source\PSoC4/CapSense_Structure.c **** *
 654:Generated_Source\PSoC4/CapSense_Structure.c **** *******************************************************************************/
 655:Generated_Source\PSoC4/CapSense_Structure.c **** cystatus CapSense_GetParam(uint32 paramId, uint32 *value)
 656:Generated_Source\PSoC4/CapSense_Structure.c **** {
 449              		.loc 1 656 0
 450              		.cfi_startproc
 451              		@ args = 0, pretend = 0, frame = 8
 452              		@ frame_needed = 0, uses_anonymous_args = 0
 453              	.LVL52:
 454 0000 30B5     		push	{r4, r5, lr}
 455              		.cfi_def_cfa_offset 12
 456              		.cfi_offset 4, -12
 457              		.cfi_offset 5, -8
 458              		.cfi_offset 14, -4
 459 0002 83B0     		sub	sp, sp, #12
 460              		.cfi_def_cfa_offset 24
 461 0004 0D00     		movs	r5, r1
 657:Generated_Source\PSoC4/CapSense_Structure.c ****     PARAM_ID_STRUCT pData;
 658:Generated_Source\PSoC4/CapSense_Structure.c ****     cystatus result;
 659:Generated_Source\PSoC4/CapSense_Structure.c **** 
 660:Generated_Source\PSoC4/CapSense_Structure.c ****     union
 661:Generated_Source\PSoC4/CapSense_Structure.c ****     {
 662:Generated_Source\PSoC4/CapSense_Structure.c ****         volatile void   const * ptr;
 663:Generated_Source\PSoC4/CapSense_Structure.c ****         volatile uint8  const * ptrUint8;
 664:Generated_Source\PSoC4/CapSense_Structure.c ****         volatile uint16 const * ptrUint16;
 665:Generated_Source\PSoC4/CapSense_Structure.c ****         volatile uint32 const * ptrUint32;
 666:Generated_Source\PSoC4/CapSense_Structure.c ****     } ptrData;
 667:Generated_Source\PSoC4/CapSense_Structure.c **** 
 668:Generated_Source\PSoC4/CapSense_Structure.c ****     result = DsParseParamId(paramId, &pData);
 462              		.loc 1 668 0
 463 0006 6946     		mov	r1, sp
 464              	.LVL53:
 465 0008 FFF7FEFF 		bl	DsParseParamId
 466              	.LVL54:
 467 000c 041E     		subs	r4, r0, #0
 468              	.LVL55:
 669:Generated_Source\PSoC4/CapSense_Structure.c **** 
 670:Generated_Source\PSoC4/CapSense_Structure.c ****     /* Parse and validate paramId */
 671:Generated_Source\PSoC4/CapSense_Structure.c ****     if (CYRET_SUCCESS == result)
 469              		.loc 1 671 0
 470 000e 1FD1     		bne	.L32
 672:Generated_Source\PSoC4/CapSense_Structure.c ****     {
 673:Generated_Source\PSoC4/CapSense_Structure.c ****         /* Get base address of parameter */
 674:Generated_Source\PSoC4/CapSense_Structure.c ****         if (0u == pData.flash)
 471              		.loc 1 674 0
 472 0010 6B46     		mov	r3, sp
 473 0012 5B79     		ldrb	r3, [r3, #5]
 474 0014 002B     		cmp	r3, #0
 475 0016 01D1     		bne	.L33
 675:Generated_Source\PSoC4/CapSense_Structure.c ****         {
 676:Generated_Source\PSoC4/CapSense_Structure.c ****             ptrData.ptr = &CapSense_dsRam;
ARM GAS  C:\Users\mstai\AppData\Local\Temp\ccDx5aab.s 			page 22


 476              		.loc 1 676 0
 477 0018 0F4A     		ldr	r2, .L38
 478              	.LVL56:
 479 001a 02E0     		b	.L34
 480              	.L33:
 677:Generated_Source\PSoC4/CapSense_Structure.c ****         }
 678:Generated_Source\PSoC4/CapSense_Structure.c ****         else
 679:Generated_Source\PSoC4/CapSense_Structure.c ****         {
 680:Generated_Source\PSoC4/CapSense_Structure.c ****             ptrData.ptr = &CapSense_dsFlash;
 481              		.loc 1 680 0
 482 001c 0F4B     		ldr	r3, .L38+4
 483 001e 1433     		adds	r3, r3, #20
 484 0020 1A00     		movs	r2, r3
 485              	.L34:
 681:Generated_Source\PSoC4/CapSense_Structure.c ****         }
 682:Generated_Source\PSoC4/CapSense_Structure.c **** 
 683:Generated_Source\PSoC4/CapSense_Structure.c ****         /* Add offset to base address */
 684:Generated_Source\PSoC4/CapSense_Structure.c ****         ptrData.ptrUint8 += pData.offset;
 486              		.loc 1 684 0
 487 0022 6B46     		mov	r3, sp
 488 0024 1B88     		ldrh	r3, [r3]
 489              	.LVL57:
 490 0026 D318     		adds	r3, r2, r3
 685:Generated_Source\PSoC4/CapSense_Structure.c **** 
 686:Generated_Source\PSoC4/CapSense_Structure.c ****         /* Read data */
 687:Generated_Source\PSoC4/CapSense_Structure.c ****         if (DS_PARAM_TYPE_UINT8 == pData.type)
 491              		.loc 1 687 0
 492 0028 6A46     		mov	r2, sp
 493              	.LVL58:
 494 002a D279     		ldrb	r2, [r2, #7]
 495 002c 012A     		cmp	r2, #1
 496 002e 02D1     		bne	.L35
 688:Generated_Source\PSoC4/CapSense_Structure.c ****         {
 689:Generated_Source\PSoC4/CapSense_Structure.c ****             *value = (uint32) (*ptrData.ptrUint8);
 497              		.loc 1 689 0
 498 0030 1B78     		ldrb	r3, [r3]
 499 0032 2B60     		str	r3, [r5]
 500 0034 0CE0     		b	.L32
 501              	.L35:
 690:Generated_Source\PSoC4/CapSense_Structure.c ****         }
 691:Generated_Source\PSoC4/CapSense_Structure.c ****         else if (DS_PARAM_TYPE_UINT16 == pData.type)
 502              		.loc 1 691 0
 503 0036 022A     		cmp	r2, #2
 504 0038 02D1     		bne	.L36
 692:Generated_Source\PSoC4/CapSense_Structure.c ****         {
 693:Generated_Source\PSoC4/CapSense_Structure.c ****             *value = (uint32) (*ptrData.ptrUint16);
 505              		.loc 1 693 0
 506 003a 1B88     		ldrh	r3, [r3]
 507 003c 2B60     		str	r3, [r5]
 508 003e 07E0     		b	.L32
 509              	.L36:
 694:Generated_Source\PSoC4/CapSense_Structure.c ****         }
 695:Generated_Source\PSoC4/CapSense_Structure.c ****         else if (DS_PARAM_TYPE_UINT32 == pData.type)
 510              		.loc 1 695 0
 511 0040 032A     		cmp	r2, #3
 512 0042 02D1     		bne	.L37
 696:Generated_Source\PSoC4/CapSense_Structure.c ****         {
ARM GAS  C:\Users\mstai\AppData\Local\Temp\ccDx5aab.s 			page 23


 697:Generated_Source\PSoC4/CapSense_Structure.c ****             *value = *ptrData.ptrUint32;
 513              		.loc 1 697 0
 514 0044 1B68     		ldr	r3, [r3]
 515 0046 2B60     		str	r3, [r5]
 516 0048 02E0     		b	.L32
 517              	.L37:
 698:Generated_Source\PSoC4/CapSense_Structure.c ****         }
 699:Generated_Source\PSoC4/CapSense_Structure.c ****         else
 700:Generated_Source\PSoC4/CapSense_Structure.c ****         {
 701:Generated_Source\PSoC4/CapSense_Structure.c ****             /* Parameter comes here already validated. */
 702:Generated_Source\PSoC4/CapSense_Structure.c ****             CYASSERT(0u);
 518              		.loc 1 702 0 discriminator 1
 519 004a 0020     		movs	r0, #0
 520              	.LVL59:
 521 004c FFF7FEFF 		bl	CyHalt
 522              	.LVL60:
 523              	.L32:
 703:Generated_Source\PSoC4/CapSense_Structure.c ****         }
 704:Generated_Source\PSoC4/CapSense_Structure.c ****     }
 705:Generated_Source\PSoC4/CapSense_Structure.c **** 
 706:Generated_Source\PSoC4/CapSense_Structure.c ****     return result;
 707:Generated_Source\PSoC4/CapSense_Structure.c **** }
 524              		.loc 1 707 0
 525 0050 2000     		movs	r0, r4
 526 0052 03B0     		add	sp, sp, #12
 527              		@ sp needed
 528              	.LVL61:
 529              	.LVL62:
 530 0054 30BD     		pop	{r4, r5, pc}
 531              	.L39:
 532 0056 C046     		.align	2
 533              	.L38:
 534 0058 00000000 		.word	CapSense_dsRam
 535 005c 00000000 		.word	.LANCHOR0
 536              		.cfi_endproc
 537              	.LFE3:
 538              		.size	CapSense_GetParam, .-CapSense_GetParam
 539              		.section	.text.CapSense_SetParam,"ax",%progbits
 540              		.align	2
 541              		.global	CapSense_SetParam
 542              		.code	16
 543              		.thumb_func
 544              		.type	CapSense_SetParam, %function
 545              	CapSense_SetParam:
 546              	.LFB4:
 708:Generated_Source\PSoC4/CapSense_Structure.c **** 
 709:Generated_Source\PSoC4/CapSense_Structure.c **** 
 710:Generated_Source\PSoC4/CapSense_Structure.c **** /*******************************************************************************
 711:Generated_Source\PSoC4/CapSense_Structure.c **** * Function Name: CapSense_SetParam
 712:Generated_Source\PSoC4/CapSense_Structure.c **** ****************************************************************************//**
 713:Generated_Source\PSoC4/CapSense_Structure.c **** *
 714:Generated_Source\PSoC4/CapSense_Structure.c **** * \brief
 715:Generated_Source\PSoC4/CapSense_Structure.c **** *  Sets a new value for the specified parameter in the \ref group_structures.
 716:Generated_Source\PSoC4/CapSense_Structure.c **** *
 717:Generated_Source\PSoC4/CapSense_Structure.c **** * \details
 718:Generated_Source\PSoC4/CapSense_Structure.c **** *  This function sets the value of the specified parameter by the paramId
 719:Generated_Source\PSoC4/CapSense_Structure.c **** *  argument. The paramId for each register is available in the
ARM GAS  C:\Users\mstai\AppData\Local\Temp\ccDx5aab.s 			page 24


 720:Generated_Source\PSoC4/CapSense_Structure.c **** *  CapSense RegisterMap header file as
 721:Generated_Source\PSoC4/CapSense_Structure.c **** *  CapSense_<ParameterName>_PARAM_ID. The paramId is a special
 722:Generated_Source\PSoC4/CapSense_Structure.c **** *  enumerated value generated by the customizer. The format of paramId is as
 723:Generated_Source\PSoC4/CapSense_Structure.c **** *  follows:
 724:Generated_Source\PSoC4/CapSense_Structure.c **** *    1. [ byte 3 byte 2 byte 1 byte 0 ]
 725:Generated_Source\PSoC4/CapSense_Structure.c **** *    2. [ TTWFCCCC UIIIIIII MMMMMMMM LLLLLLLL ]
 726:Generated_Source\PSoC4/CapSense_Structure.c **** *    3. T - encodes the parameter type:
 727:Generated_Source\PSoC4/CapSense_Structure.c **** *      - 01b: uint8
 728:Generated_Source\PSoC4/CapSense_Structure.c **** *      - 10b: uint16
 729:Generated_Source\PSoC4/CapSense_Structure.c **** *      - 11b: uint32
 730:Generated_Source\PSoC4/CapSense_Structure.c **** *    4. W - indicates whether the parameter is writable:
 731:Generated_Source\PSoC4/CapSense_Structure.c **** *      - 0: ReadOnly
 732:Generated_Source\PSoC4/CapSense_Structure.c **** *      - 1: Read/Write
 733:Generated_Source\PSoC4/CapSense_Structure.c **** *    5. C - 4 bit CRC (X^3 + 1) of the whole paramId word, the C bits are
 734:Generated_Source\PSoC4/CapSense_Structure.c **** *       filled with 0s when the CRC is calculated.
 735:Generated_Source\PSoC4/CapSense_Structure.c **** *    6. U - indicates if the parameter affects the RAM Widget Object CRC.
 736:Generated_Source\PSoC4/CapSense_Structure.c **** *    7. I - specifies that the widgetId parameter belongs to
 737:Generated_Source\PSoC4/CapSense_Structure.c **** *    8. M,L - the parameter offset MSB and LSB accordingly in:
 738:Generated_Source\PSoC4/CapSense_Structure.c **** *      - Flash Data Structure if W bit is 0.
 739:Generated_Source\PSoC4/CapSense_Structure.c **** *      - RAM Data Structure if W bit is 1.
 740:Generated_Source\PSoC4/CapSense_Structure.c **** *
 741:Generated_Source\PSoC4/CapSense_Structure.c **** *  Refer to the \ref group_structures section for details of the data structure
 742:Generated_Source\PSoC4/CapSense_Structure.c **** *  organization and examples of its register access.
 743:Generated_Source\PSoC4/CapSense_Structure.c **** *
 744:Generated_Source\PSoC4/CapSense_Structure.c **** *  This function writes specified value into the desired register without
 745:Generated_Source\PSoC4/CapSense_Structure.c **** *  other registers update. It is application layer responsibility to keep all
 746:Generated_Source\PSoC4/CapSense_Structure.c **** *  the data structure registers aligned. Repeated call of
 747:Generated_Source\PSoC4/CapSense_Structure.c **** *  CapSense_Start() function helps aligning dependent register values.
 748:Generated_Source\PSoC4/CapSense_Structure.c **** *
 749:Generated_Source\PSoC4/CapSense_Structure.c **** * \param paramId
 750:Generated_Source\PSoC4/CapSense_Structure.c **** *  Specifies the ID of parameter to set its value.
 751:Generated_Source\PSoC4/CapSense_Structure.c **** *  A macro for the parameter ID can be found in the CapSense RegisterMap header
 752:Generated_Source\PSoC4/CapSense_Structure.c **** *  file defined as CapSense_<ParameterName>_PARAM_ID.
 753:Generated_Source\PSoC4/CapSense_Structure.c **** 
 754:Generated_Source\PSoC4/CapSense_Structure.c **** * \param value
 755:Generated_Source\PSoC4/CapSense_Structure.c **** *  Specifies the new parameter's value.
 756:Generated_Source\PSoC4/CapSense_Structure.c **** *
 757:Generated_Source\PSoC4/CapSense_Structure.c **** * \return
 758:Generated_Source\PSoC4/CapSense_Structure.c **** *  Returns the status of the operation:
 759:Generated_Source\PSoC4/CapSense_Structure.c **** *    - CYRET_SUCCESS - The operation is successfully completed.
 760:Generated_Source\PSoC4/CapSense_Structure.c **** *    - CYRET_BAD_PARAM - The input parameter is invalid.
 761:Generated_Source\PSoC4/CapSense_Structure.c **** *
 762:Generated_Source\PSoC4/CapSense_Structure.c **** *******************************************************************************/
 763:Generated_Source\PSoC4/CapSense_Structure.c **** cystatus CapSense_SetParam(uint32 paramId, uint32 value)
 764:Generated_Source\PSoC4/CapSense_Structure.c **** {
 547              		.loc 1 764 0
 548              		.cfi_startproc
 549              		@ args = 0, pretend = 0, frame = 8
 550              		@ frame_needed = 0, uses_anonymous_args = 0
 551              	.LVL63:
 552 0000 70B5     		push	{r4, r5, r6, lr}
 553              		.cfi_def_cfa_offset 16
 554              		.cfi_offset 4, -16
 555              		.cfi_offset 5, -12
 556              		.cfi_offset 6, -8
 557              		.cfi_offset 14, -4
 558 0002 82B0     		sub	sp, sp, #8
ARM GAS  C:\Users\mstai\AppData\Local\Temp\ccDx5aab.s 			page 25


 559              		.cfi_def_cfa_offset 24
 560 0004 0E00     		movs	r6, r1
 765:Generated_Source\PSoC4/CapSense_Structure.c ****     cystatus result;
 766:Generated_Source\PSoC4/CapSense_Structure.c ****     PARAM_ID_STRUCT pData;
 767:Generated_Source\PSoC4/CapSense_Structure.c **** 
 768:Generated_Source\PSoC4/CapSense_Structure.c ****     union
 769:Generated_Source\PSoC4/CapSense_Structure.c ****     {
 770:Generated_Source\PSoC4/CapSense_Structure.c ****         volatile void   * ptr;
 771:Generated_Source\PSoC4/CapSense_Structure.c ****         volatile uint8  * ptrUint8;
 772:Generated_Source\PSoC4/CapSense_Structure.c ****         volatile uint16 * ptrUint16;
 773:Generated_Source\PSoC4/CapSense_Structure.c ****         volatile uint32 * ptrUint32;
 774:Generated_Source\PSoC4/CapSense_Structure.c ****     } ptrData;
 775:Generated_Source\PSoC4/CapSense_Structure.c **** 
 776:Generated_Source\PSoC4/CapSense_Structure.c ****     result = DsParseParamId(paramId, &pData);
 561              		.loc 1 776 0
 562 0006 6946     		mov	r1, sp
 563              	.LVL64:
 564 0008 FFF7FEFF 		bl	DsParseParamId
 565              	.LVL65:
 566 000c 041E     		subs	r4, r0, #0
 567              	.LVL66:
 777:Generated_Source\PSoC4/CapSense_Structure.c **** 
 778:Generated_Source\PSoC4/CapSense_Structure.c ****     /* verify if parameter is writable */
 779:Generated_Source\PSoC4/CapSense_Structure.c ****     if (CYRET_SUCCESS == result)
 568              		.loc 1 779 0
 569 000e 04D1     		bne	.L41
 780:Generated_Source\PSoC4/CapSense_Structure.c ****     {
 781:Generated_Source\PSoC4/CapSense_Structure.c ****         if (0u == pData.rw)
 570              		.loc 1 781 0
 571 0010 6B46     		mov	r3, sp
 572 0012 9B79     		ldrb	r3, [r3, #6]
 573 0014 002B     		cmp	r3, #0
 574 0016 00D1     		bne	.L41
 782:Generated_Source\PSoC4/CapSense_Structure.c ****         {
 783:Generated_Source\PSoC4/CapSense_Structure.c ****             result = CYRET_BAD_PARAM;
 575              		.loc 1 783 0
 576 0018 0134     		adds	r4, r4, #1
 577              	.L41:
 578              	.LVL67:
 784:Generated_Source\PSoC4/CapSense_Structure.c ****         }
 785:Generated_Source\PSoC4/CapSense_Structure.c ****     }
 786:Generated_Source\PSoC4/CapSense_Structure.c **** 
 787:Generated_Source\PSoC4/CapSense_Structure.c ****     /* Parse and validate paramId */
 788:Generated_Source\PSoC4/CapSense_Structure.c ****     if (CYRET_SUCCESS == result)
 579              		.loc 1 788 0
 580 001a 002C     		cmp	r4, #0
 581 001c 27D1     		bne	.L42
 789:Generated_Source\PSoC4/CapSense_Structure.c ****     {
 790:Generated_Source\PSoC4/CapSense_Structure.c ****         /* Get base address of parameter */
 791:Generated_Source\PSoC4/CapSense_Structure.c ****         ptrData.ptr = &CapSense_dsRam;
 792:Generated_Source\PSoC4/CapSense_Structure.c **** 
 793:Generated_Source\PSoC4/CapSense_Structure.c ****         /* Add offset to base address */
 794:Generated_Source\PSoC4/CapSense_Structure.c ****         ptrData.ptrUint8 += pData.offset;
 582              		.loc 1 794 0
 583 001e 6B46     		mov	r3, sp
 584 0020 1D88     		ldrh	r5, [r3]
 585 0022 144B     		ldr	r3, .L49
ARM GAS  C:\Users\mstai\AppData\Local\Temp\ccDx5aab.s 			page 26


 586 0024 ED18     		adds	r5, r5, r3
 795:Generated_Source\PSoC4/CapSense_Structure.c **** 
 796:Generated_Source\PSoC4/CapSense_Structure.c ****         /* Write data */
 797:Generated_Source\PSoC4/CapSense_Structure.c ****         if (DS_PARAM_TYPE_UINT8 == pData.type)
 587              		.loc 1 797 0
 588 0026 6B46     		mov	r3, sp
 589 0028 DB79     		ldrb	r3, [r3, #7]
 590 002a 012B     		cmp	r3, #1
 591 002c 02D1     		bne	.L43
 798:Generated_Source\PSoC4/CapSense_Structure.c ****         {
 799:Generated_Source\PSoC4/CapSense_Structure.c ****             *ptrData.ptrUint8 = LO8(value);
 592              		.loc 1 799 0
 593 002e F6B2     		uxtb	r6, r6
 594              	.LVL68:
 595 0030 2E70     		strb	r6, [r5]
 596 0032 0BE0     		b	.L44
 597              	.LVL69:
 598              	.L43:
 800:Generated_Source\PSoC4/CapSense_Structure.c ****         }
 801:Generated_Source\PSoC4/CapSense_Structure.c ****         else if (DS_PARAM_TYPE_UINT16 == pData.type)
 599              		.loc 1 801 0
 600 0034 022B     		cmp	r3, #2
 601 0036 02D1     		bne	.L45
 802:Generated_Source\PSoC4/CapSense_Structure.c ****         {
 803:Generated_Source\PSoC4/CapSense_Structure.c ****             *ptrData.ptrUint16 = LO16(value);
 602              		.loc 1 803 0
 603 0038 B6B2     		uxth	r6, r6
 604              	.LVL70:
 605 003a 2E80     		strh	r6, [r5]
 606 003c 06E0     		b	.L44
 607              	.LVL71:
 608              	.L45:
 804:Generated_Source\PSoC4/CapSense_Structure.c ****         }
 805:Generated_Source\PSoC4/CapSense_Structure.c ****         else if (DS_PARAM_TYPE_UINT32 == pData.type)
 609              		.loc 1 805 0
 610 003e 032B     		cmp	r3, #3
 611 0040 01D1     		bne	.L46
 806:Generated_Source\PSoC4/CapSense_Structure.c ****         {
 807:Generated_Source\PSoC4/CapSense_Structure.c ****             *ptrData.ptrUint32 = value;
 612              		.loc 1 807 0
 613 0042 2E60     		str	r6, [r5]
 614 0044 02E0     		b	.L44
 615              	.L46:
 808:Generated_Source\PSoC4/CapSense_Structure.c ****         }
 809:Generated_Source\PSoC4/CapSense_Structure.c ****         else
 810:Generated_Source\PSoC4/CapSense_Structure.c ****         {
 811:Generated_Source\PSoC4/CapSense_Structure.c ****             /* Parameter comes here already validated. */
 812:Generated_Source\PSoC4/CapSense_Structure.c ****             CYASSERT(0u);
 616              		.loc 1 812 0 discriminator 1
 617 0046 0020     		movs	r0, #0
 618 0048 FFF7FEFF 		bl	CyHalt
 619              	.LVL72:
 620              	.L44:
 813:Generated_Source\PSoC4/CapSense_Structure.c ****         }
 814:Generated_Source\PSoC4/CapSense_Structure.c **** 
 815:Generated_Source\PSoC4/CapSense_Structure.c ****         #if (CapSense_ENABLE == (CapSense_TST_WDGT_CRC_EN || CapSense_TST_GLOBAL_CRC_EN))
 816:Generated_Source\PSoC4/CapSense_Structure.c ****             /* Update widget or global CRC if self-test is enabled and parameter affects it */
ARM GAS  C:\Users\mstai\AppData\Local\Temp\ccDx5aab.s 			page 27


 817:Generated_Source\PSoC4/CapSense_Structure.c ****             if (0u != pData.affectsCrc)
 621              		.loc 1 817 0
 622 004c 6B46     		mov	r3, sp
 623 004e DB78     		ldrb	r3, [r3, #3]
 624 0050 002B     		cmp	r3, #0
 625 0052 0CD0     		beq	.L42
 818:Generated_Source\PSoC4/CapSense_Structure.c ****             {
 819:Generated_Source\PSoC4/CapSense_Structure.c ****                 if ((ptrData.ptrUint16 >= &CapSense_dsRam.csd0Config) &&
 626              		.loc 1 819 0
 627 0054 084B     		ldr	r3, .L49+4
 628 0056 9D42     		cmp	r5, r3
 629 0058 05D3     		bcc	.L47
 630              		.loc 1 819 0 is_stmt 0 discriminator 1
 631 005a 084B     		ldr	r3, .L49+8
 632 005c 9D42     		cmp	r5, r3
 633 005e 02D2     		bcs	.L47
 820:Generated_Source\PSoC4/CapSense_Structure.c ****                     (ptrData.ptrUint16 <  &CapSense_dsRam.glbCrc))
 821:Generated_Source\PSoC4/CapSense_Structure.c ****                 {
 822:Generated_Source\PSoC4/CapSense_Structure.c **** 
 823:Generated_Source\PSoC4/CapSense_Structure.c ****                     #if (CapSense_ENABLE == CapSense_TST_GLOBAL_CRC_EN)
 824:Generated_Source\PSoC4/CapSense_Structure.c ****                         CapSense_DsUpdateGlobalCrc();
 634              		.loc 1 824 0 is_stmt 1
 635 0060 FFF7FEFF 		bl	CapSense_DsUpdateGlobalCrc
 636              	.LVL73:
 637 0064 03E0     		b	.L42
 638              	.L47:
 825:Generated_Source\PSoC4/CapSense_Structure.c ****                     #endif /* (CapSense_ENABLE == CapSense_TST_GLOBAL_CRC_EN) */
 826:Generated_Source\PSoC4/CapSense_Structure.c **** 
 827:Generated_Source\PSoC4/CapSense_Structure.c ****                 }
 828:Generated_Source\PSoC4/CapSense_Structure.c ****                 else
 829:Generated_Source\PSoC4/CapSense_Structure.c ****                 {
 830:Generated_Source\PSoC4/CapSense_Structure.c ****                     #if (CapSense_ENABLE == CapSense_TST_WDGT_CRC_EN)
 831:Generated_Source\PSoC4/CapSense_Structure.c ****                         CapSense_DsUpdateWidgetCrc((uint32)pData.widgetId);
 639              		.loc 1 831 0
 640 0066 6B46     		mov	r3, sp
 641 0068 9878     		ldrb	r0, [r3, #2]
 642 006a FFF7FEFF 		bl	CapSense_DsUpdateWidgetCrc
 643              	.LVL74:
 644              	.L42:
 832:Generated_Source\PSoC4/CapSense_Structure.c ****                     #endif /* (CapSense_ENABLE == CapSense_TST_WDGT_CRC_EN) */
 833:Generated_Source\PSoC4/CapSense_Structure.c ****                 }
 834:Generated_Source\PSoC4/CapSense_Structure.c ****             }
 835:Generated_Source\PSoC4/CapSense_Structure.c ****         #endif /* (CapSense_ENABLE == (CapSense_TST_WDGT_CRC_EN || CapSense_TST_GLOBAL_CRC_EN)) */
 836:Generated_Source\PSoC4/CapSense_Structure.c ****     }
 837:Generated_Source\PSoC4/CapSense_Structure.c **** 
 838:Generated_Source\PSoC4/CapSense_Structure.c ****     return result;
 839:Generated_Source\PSoC4/CapSense_Structure.c **** }
 645              		.loc 1 839 0
 646 006e 2000     		movs	r0, r4
 647 0070 02B0     		add	sp, sp, #8
 648              		@ sp needed
 649              	.LVL75:
 650 0072 70BD     		pop	{r4, r5, r6, pc}
 651              	.L50:
 652              		.align	2
 653              	.L49:
 654 0074 00000000 		.word	CapSense_dsRam
ARM GAS  C:\Users\mstai\AppData\Local\Temp\ccDx5aab.s 			page 28


 655 0078 1E000000 		.word	CapSense_dsRam+30
 656 007c 22000000 		.word	CapSense_dsRam+34
 657              		.cfi_endproc
 658              	.LFE4:
 659              		.size	CapSense_SetParam, .-CapSense_SetParam
 660              		.section	.text.CapSense_IsAnyWidgetActive,"ax",%progbits
 661              		.align	2
 662              		.global	CapSense_IsAnyWidgetActive
 663              		.code	16
 664              		.thumb_func
 665              		.type	CapSense_IsAnyWidgetActive, %function
 666              	CapSense_IsAnyWidgetActive:
 667              	.LFB5:
 840:Generated_Source\PSoC4/CapSense_Structure.c **** 
 841:Generated_Source\PSoC4/CapSense_Structure.c **** /*******************************************************************************
 842:Generated_Source\PSoC4/CapSense_Structure.c **** * Function Name: CapSense_IsAnyWidgetActive
 843:Generated_Source\PSoC4/CapSense_Structure.c **** ****************************************************************************//**
 844:Generated_Source\PSoC4/CapSense_Structure.c **** *
 845:Generated_Source\PSoC4/CapSense_Structure.c **** * \brief
 846:Generated_Source\PSoC4/CapSense_Structure.c **** *  Reports if any widget has detected a touch.
 847:Generated_Source\PSoC4/CapSense_Structure.c **** *
 848:Generated_Source\PSoC4/CapSense_Structure.c **** * \details
 849:Generated_Source\PSoC4/CapSense_Structure.c **** *  This function reports if any widget has detected a touch or not by extracting
 850:Generated_Source\PSoC4/CapSense_Structure.c **** *  information from the wdgtStatus registers
 851:Generated_Source\PSoC4/CapSense_Structure.c **** *  (CapSense_WDGT_STATUS<X>_VALUE). This function does not process a
 852:Generated_Source\PSoC4/CapSense_Structure.c **** *  widget but extracts processed results from the \ref group_structures.
 853:Generated_Source\PSoC4/CapSense_Structure.c **** *
 854:Generated_Source\PSoC4/CapSense_Structure.c **** * \return
 855:Generated_Source\PSoC4/CapSense_Structure.c **** *   Returns the touch detection status of all the widgets:
 856:Generated_Source\PSoC4/CapSense_Structure.c **** *     - Zero - No touch is detected in all the widgets or sensors.
 857:Generated_Source\PSoC4/CapSense_Structure.c **** *     - Non-zero - At least one widget or sensor detected a touch.
 858:Generated_Source\PSoC4/CapSense_Structure.c **** *
 859:Generated_Source\PSoC4/CapSense_Structure.c **** *******************************************************************************/
 860:Generated_Source\PSoC4/CapSense_Structure.c **** uint32 CapSense_IsAnyWidgetActive(void)
 861:Generated_Source\PSoC4/CapSense_Structure.c **** {
 668              		.loc 1 861 0
 669              		.cfi_startproc
 670              		@ args = 0, pretend = 0, frame = 0
 671              		@ frame_needed = 0, uses_anonymous_args = 0
 672              		@ link register save eliminated.
 673              	.LVL76:
 862:Generated_Source\PSoC4/CapSense_Structure.c ****     uint32 result = 0Lu;
 863:Generated_Source\PSoC4/CapSense_Structure.c ****     uint32 wdWord;
 864:Generated_Source\PSoC4/CapSense_Structure.c **** 
 865:Generated_Source\PSoC4/CapSense_Structure.c ****     for (wdWord = CapSense_WDGT_STATUS_WORDS; wdWord-- > 0u;)
 674              		.loc 1 865 0
 675 0000 0123     		movs	r3, #1
 862:Generated_Source\PSoC4/CapSense_Structure.c ****     uint32 result = 0Lu;
 676              		.loc 1 862 0
 677 0002 0020     		movs	r0, #0
 678              		.loc 1 865 0
 679 0004 05E0     		b	.L52
 680              	.LVL77:
 681              	.L53:
 866:Generated_Source\PSoC4/CapSense_Structure.c ****     {
 867:Generated_Source\PSoC4/CapSense_Structure.c ****         result |= CapSense_dsRam.wdgtStatus[wdWord];
 682              		.loc 1 867 0
ARM GAS  C:\Users\mstai\AppData\Local\Temp\ccDx5aab.s 			page 29


 683 0006 931D     		adds	r3, r2, #6
 684 0008 9B00     		lsls	r3, r3, #2
 685 000a 0449     		ldr	r1, .L54
 686 000c 5B58     		ldr	r3, [r3, r1]
 687 000e 1843     		orrs	r0, r3
 688              	.LVL78:
 865:Generated_Source\PSoC4/CapSense_Structure.c ****     {
 689              		.loc 1 865 0
 690 0010 1300     		movs	r3, r2
 691              	.LVL79:
 692              	.L52:
 865:Generated_Source\PSoC4/CapSense_Structure.c ****     {
 693              		.loc 1 865 0 is_stmt 0 discriminator 1
 694 0012 5A1E     		subs	r2, r3, #1
 695              	.LVL80:
 696 0014 002B     		cmp	r3, #0
 697 0016 F6D1     		bne	.L53
 868:Generated_Source\PSoC4/CapSense_Structure.c ****     }
 869:Generated_Source\PSoC4/CapSense_Structure.c **** 
 870:Generated_Source\PSoC4/CapSense_Structure.c ****     return result;
 871:Generated_Source\PSoC4/CapSense_Structure.c **** }
 698              		.loc 1 871 0 is_stmt 1
 699              		@ sp needed
 700 0018 7047     		bx	lr
 701              	.L55:
 702 001a C046     		.align	2
 703              	.L54:
 704 001c 00000000 		.word	CapSense_dsRam
 705              		.cfi_endproc
 706              	.LFE5:
 707              		.size	CapSense_IsAnyWidgetActive, .-CapSense_IsAnyWidgetActive
 708              		.section	.text.CapSense_IsWidgetActive,"ax",%progbits
 709              		.align	2
 710              		.global	CapSense_IsWidgetActive
 711              		.code	16
 712              		.thumb_func
 713              		.type	CapSense_IsWidgetActive, %function
 714              	CapSense_IsWidgetActive:
 715              	.LFB6:
 872:Generated_Source\PSoC4/CapSense_Structure.c **** 
 873:Generated_Source\PSoC4/CapSense_Structure.c **** 
 874:Generated_Source\PSoC4/CapSense_Structure.c **** /*******************************************************************************
 875:Generated_Source\PSoC4/CapSense_Structure.c **** * Function Name: CapSense_IsWidgetActive
 876:Generated_Source\PSoC4/CapSense_Structure.c **** ****************************************************************************//**
 877:Generated_Source\PSoC4/CapSense_Structure.c **** *
 878:Generated_Source\PSoC4/CapSense_Structure.c **** * \brief
 879:Generated_Source\PSoC4/CapSense_Structure.c **** *  Reports if the specified widget detects a touch on any of its sensors.
 880:Generated_Source\PSoC4/CapSense_Structure.c **** *
 881:Generated_Source\PSoC4/CapSense_Structure.c **** * \details
 882:Generated_Source\PSoC4/CapSense_Structure.c **** *  This function reports if the specified widget has detected a touch or not by
 883:Generated_Source\PSoC4/CapSense_Structure.c **** *  extracting information from the wdgtStatus registers
 884:Generated_Source\PSoC4/CapSense_Structure.c **** *  (CapSense_WDGT_STATUS<X>_VALUE). This function does not process the
 885:Generated_Source\PSoC4/CapSense_Structure.c **** *  widget but extracts processed results from the \ref group_structures.
 886:Generated_Source\PSoC4/CapSense_Structure.c **** *
 887:Generated_Source\PSoC4/CapSense_Structure.c **** * \param widgetId
 888:Generated_Source\PSoC4/CapSense_Structure.c **** *  Specifies the ID number of the widget to get its status.
 889:Generated_Source\PSoC4/CapSense_Structure.c **** *  A macro for the widget ID can be found in the CapSense Configuration header
ARM GAS  C:\Users\mstai\AppData\Local\Temp\ccDx5aab.s 			page 30


 890:Generated_Source\PSoC4/CapSense_Structure.c **** *  file defined as CapSense_<WidgetName>_WDGT_ID.
 891:Generated_Source\PSoC4/CapSense_Structure.c **** *
 892:Generated_Source\PSoC4/CapSense_Structure.c **** * \return
 893:Generated_Source\PSoC4/CapSense_Structure.c **** *  Returns the touch detection status of the specified widgets:
 894:Generated_Source\PSoC4/CapSense_Structure.c **** *    - Zero - No touch is detected in the specified widget or a wrong widgetId
 895:Generated_Source\PSoC4/CapSense_Structure.c **** *      is specified.
 896:Generated_Source\PSoC4/CapSense_Structure.c **** *    - Non-zero if at least one sensor of the specified widget is active, i.e.
 897:Generated_Source\PSoC4/CapSense_Structure.c **** *      a touch is detected.
 898:Generated_Source\PSoC4/CapSense_Structure.c **** *
 899:Generated_Source\PSoC4/CapSense_Structure.c **** *******************************************************************************/
 900:Generated_Source\PSoC4/CapSense_Structure.c **** uint32 CapSense_IsWidgetActive(uint32 widgetId)
 901:Generated_Source\PSoC4/CapSense_Structure.c **** {
 716              		.loc 1 901 0
 717              		.cfi_startproc
 718              		@ args = 0, pretend = 0, frame = 0
 719              		@ frame_needed = 0, uses_anonymous_args = 0
 720              		@ link register save eliminated.
 721              	.LVL81:
 902:Generated_Source\PSoC4/CapSense_Structure.c ****     uint32 result = 0Lu;
 903:Generated_Source\PSoC4/CapSense_Structure.c **** 
 904:Generated_Source\PSoC4/CapSense_Structure.c ****     if (widgetId < CapSense_TOTAL_WIDGETS)
 722              		.loc 1 904 0
 723 0000 0028     		cmp	r0, #0
 724 0002 0AD1     		bne	.L58
 905:Generated_Source\PSoC4/CapSense_Structure.c ****     {
 906:Generated_Source\PSoC4/CapSense_Structure.c ****         result = CapSense_GET_WIDGET_ACTIVE_STATUS(widgetId);
 725              		.loc 1 906 0
 726 0004 1F23     		movs	r3, #31
 727 0006 0340     		ands	r3, r0
 728 0008 0122     		movs	r2, #1
 729 000a 9A40     		lsls	r2, r2, r3
 730 000c 4309     		lsrs	r3, r0, #5
 731 000e 0633     		adds	r3, r3, #6
 732 0010 9B00     		lsls	r3, r3, #2
 733 0012 0349     		ldr	r1, .L59
 734 0014 5858     		ldr	r0, [r3, r1]
 735              	.LVL82:
 736 0016 1040     		ands	r0, r2
 737              	.LVL83:
 738 0018 00E0     		b	.L57
 739              	.LVL84:
 740              	.L58:
 902:Generated_Source\PSoC4/CapSense_Structure.c ****     uint32 result = 0Lu;
 741              		.loc 1 902 0
 742 001a 0020     		movs	r0, #0
 743              	.LVL85:
 744              	.L57:
 907:Generated_Source\PSoC4/CapSense_Structure.c ****     }
 908:Generated_Source\PSoC4/CapSense_Structure.c ****     return result;
 909:Generated_Source\PSoC4/CapSense_Structure.c **** }
 745              		.loc 1 909 0
 746              		@ sp needed
 747 001c 7047     		bx	lr
 748              	.L60:
 749 001e C046     		.align	2
 750              	.L59:
 751 0020 00000000 		.word	CapSense_dsRam
ARM GAS  C:\Users\mstai\AppData\Local\Temp\ccDx5aab.s 			page 31


 752              		.cfi_endproc
 753              	.LFE6:
 754              		.size	CapSense_IsWidgetActive, .-CapSense_IsWidgetActive
 755              		.section	.text.CapSense_IsSensorActive,"ax",%progbits
 756              		.align	2
 757              		.global	CapSense_IsSensorActive
 758              		.code	16
 759              		.thumb_func
 760              		.type	CapSense_IsSensorActive, %function
 761              	CapSense_IsSensorActive:
 762              	.LFB7:
 910:Generated_Source\PSoC4/CapSense_Structure.c **** 
 911:Generated_Source\PSoC4/CapSense_Structure.c **** 
 912:Generated_Source\PSoC4/CapSense_Structure.c **** /*******************************************************************************
 913:Generated_Source\PSoC4/CapSense_Structure.c **** * Function Name: CapSense_IsSensorActive
 914:Generated_Source\PSoC4/CapSense_Structure.c **** ****************************************************************************//**
 915:Generated_Source\PSoC4/CapSense_Structure.c **** *
 916:Generated_Source\PSoC4/CapSense_Structure.c **** * \brief
 917:Generated_Source\PSoC4/CapSense_Structure.c **** *  Reports if the specified sensor in the widget detects a touch.
 918:Generated_Source\PSoC4/CapSense_Structure.c **** *
 919:Generated_Source\PSoC4/CapSense_Structure.c **** * \details
 920:Generated_Source\PSoC4/CapSense_Structure.c **** *  This function reports if the specified sensor in the widget has detected a
 921:Generated_Source\PSoC4/CapSense_Structure.c **** *  touch or not by extracting information from the wdgtStatus registers
 922:Generated_Source\PSoC4/CapSense_Structure.c **** *  (CapSense_WDGT_STATUS<X>_VALUE). This function does not process the
 923:Generated_Source\PSoC4/CapSense_Structure.c **** *  widget or sensor but extracts processed results from the \ref group_structures.
 924:Generated_Source\PSoC4/CapSense_Structure.c **** *
 925:Generated_Source\PSoC4/CapSense_Structure.c **** *  For proximity sensors, this function returns the proximity detection status. To
 926:Generated_Source\PSoC4/CapSense_Structure.c **** *  get the finger touch status of proximity sensors, use the
 927:Generated_Source\PSoC4/CapSense_Structure.c **** *  CapSense_IsProximitySensorActive() function.
 928:Generated_Source\PSoC4/CapSense_Structure.c **** *
 929:Generated_Source\PSoC4/CapSense_Structure.c **** * \param widgetId
 930:Generated_Source\PSoC4/CapSense_Structure.c **** *  Specifies the ID number of the widget.
 931:Generated_Source\PSoC4/CapSense_Structure.c **** *  A macro for the widget ID can be found in the CapSense Configuration header
 932:Generated_Source\PSoC4/CapSense_Structure.c **** *  file defined as CapSense_<WidgetName>_WDGT_ID.
 933:Generated_Source\PSoC4/CapSense_Structure.c **** 
 934:Generated_Source\PSoC4/CapSense_Structure.c **** * \param sensorId
 935:Generated_Source\PSoC4/CapSense_Structure.c **** *  Specifies the ID number of the sensor within the widget to get its touch
 936:Generated_Source\PSoC4/CapSense_Structure.c **** *  detection status.
 937:Generated_Source\PSoC4/CapSense_Structure.c **** *  A macro for the sensor ID within the specified widget can be found in the
 938:Generated_Source\PSoC4/CapSense_Structure.c **** *  CapSense Configuration header file defined as
 939:Generated_Source\PSoC4/CapSense_Structure.c **** *  CapSense_<WidgetName>_SNS<SensorNumber>_ID.
 940:Generated_Source\PSoC4/CapSense_Structure.c **** *
 941:Generated_Source\PSoC4/CapSense_Structure.c **** * \return
 942:Generated_Source\PSoC4/CapSense_Structure.c **** *  Returns the touch detection status of the specified sensor / widget:
 943:Generated_Source\PSoC4/CapSense_Structure.c **** *    - Zero if no touch is detected in the specified sensor / widget or a wrong
 944:Generated_Source\PSoC4/CapSense_Structure.c **** *      widget ID / sensor ID is specified.
 945:Generated_Source\PSoC4/CapSense_Structure.c **** *    - Non-zero if the specified sensor is active i.e. touch is detected. If the
 946:Generated_Source\PSoC4/CapSense_Structure.c **** *      specific sensor belongs to a proximity widget, the proximity detection
 947:Generated_Source\PSoC4/CapSense_Structure.c **** *      status is returned.
 948:Generated_Source\PSoC4/CapSense_Structure.c **** *
 949:Generated_Source\PSoC4/CapSense_Structure.c **** *******************************************************************************/
 950:Generated_Source\PSoC4/CapSense_Structure.c **** uint32 CapSense_IsSensorActive(uint32 widgetId, uint32 sensorId)
 951:Generated_Source\PSoC4/CapSense_Structure.c **** {
 763              		.loc 1 951 0
 764              		.cfi_startproc
 765              		@ args = 0, pretend = 0, frame = 0
 766              		@ frame_needed = 0, uses_anonymous_args = 0
ARM GAS  C:\Users\mstai\AppData\Local\Temp\ccDx5aab.s 			page 32


 767              		@ link register save eliminated.
 768              	.LVL86:
 952:Generated_Source\PSoC4/CapSense_Structure.c ****     uint32 result = 0Lu;
 953:Generated_Source\PSoC4/CapSense_Structure.c **** 
 954:Generated_Source\PSoC4/CapSense_Structure.c ****     if ((widgetId < CapSense_TOTAL_WIDGETS) &&
 769              		.loc 1 954 0
 770 0000 0028     		cmp	r0, #0
 771 0002 0CD1     		bne	.L63
 955:Generated_Source\PSoC4/CapSense_Structure.c ****         (sensorId < CapSense_GET_SENSOR_COUNT(widgetId)))
 772              		.loc 1 955 0 discriminator 1
 773 0004 4301     		lsls	r3, r0, #5
 774 0006 084A     		ldr	r2, .L65
 775 0008 D318     		adds	r3, r2, r3
 776 000a 9B8D     		ldrh	r3, [r3, #44]
 954:Generated_Source\PSoC4/CapSense_Structure.c ****         (sensorId < CapSense_GET_SENSOR_COUNT(widgetId)))
 777              		.loc 1 954 0 discriminator 1
 778 000c 8B42     		cmp	r3, r1
 779 000e 08D9     		bls	.L64
 956:Generated_Source\PSoC4/CapSense_Structure.c ****     {
 957:Generated_Source\PSoC4/CapSense_Structure.c ****         #if (CapSense_ENABLE == CapSense_PROXIMITY_WIDGET_EN)
 958:Generated_Source\PSoC4/CapSense_Structure.c ****             if (CapSense_WD_PROXIMITY_E ==
 959:Generated_Source\PSoC4/CapSense_Structure.c ****                 (CapSense_WD_TYPE_ENUM)CapSense_dsFlash.wdgtArray[widgetId].wdgtType)
 960:Generated_Source\PSoC4/CapSense_Structure.c ****             {
 961:Generated_Source\PSoC4/CapSense_Structure.c ****                 sensorId = CapSense_PROX_STS_OFFSET(sensorId);
 962:Generated_Source\PSoC4/CapSense_Structure.c ****             }
 963:Generated_Source\PSoC4/CapSense_Structure.c ****         #endif /* (CapSense_ENABLE != CapSense_PROXIMITY_WIDGET_EN) */
 964:Generated_Source\PSoC4/CapSense_Structure.c ****         result = CapSense_dsRam.snsStatus[widgetId] & (1Lu << sensorId);
 780              		.loc 1 964 0
 781 0010 064B     		ldr	r3, .L65+4
 782 0012 1818     		adds	r0, r3, r0
 783              	.LVL87:
 784 0014 037F     		ldrb	r3, [r0, #28]
 785 0016 0120     		movs	r0, #1
 786 0018 8840     		lsls	r0, r0, r1
 787 001a 1840     		ands	r0, r3
 788              	.LVL88:
 789 001c 02E0     		b	.L62
 790              	.LVL89:
 791              	.L63:
 952:Generated_Source\PSoC4/CapSense_Structure.c **** 
 792              		.loc 1 952 0
 793 001e 0020     		movs	r0, #0
 794              	.LVL90:
 795 0020 00E0     		b	.L62
 796              	.LVL91:
 797              	.L64:
 798 0022 0020     		movs	r0, #0
 799              	.LVL92:
 800              	.L62:
 965:Generated_Source\PSoC4/CapSense_Structure.c ****     }
 966:Generated_Source\PSoC4/CapSense_Structure.c **** 
 967:Generated_Source\PSoC4/CapSense_Structure.c ****     return result;
 968:Generated_Source\PSoC4/CapSense_Structure.c **** }
 801              		.loc 1 968 0
 802              		@ sp needed
 803 0024 7047     		bx	lr
 804              	.L66:
ARM GAS  C:\Users\mstai\AppData\Local\Temp\ccDx5aab.s 			page 33


 805 0026 C046     		.align	2
 806              	.L65:
 807 0028 00000000 		.word	.LANCHOR0
 808 002c 00000000 		.word	CapSense_dsRam
 809              		.cfi_endproc
 810              	.LFE7:
 811              		.size	CapSense_IsSensorActive, .-CapSense_IsSensorActive
 812              		.global	CapSense_extCapMap
 813              		.global	CapSense_ramIdacInit
 814              		.global	CapSense_ramWidgetInit
 815              		.global	CapSense_ioList
 816              		.global	CapSense_dsFlash
 817              		.comm	CapSense_dsRam,132,4
 818              		.section	.rodata
 819              		.align	2
 820              		.set	.LANCHOR0,. + 0
 821              	.LC0:
 822 0000 00       		.byte	0
 823 0001 09       		.byte	9
 824 0002 0B       		.byte	11
 825 0003 02       		.byte	2
 826 0004 0F       		.byte	15
 827 0005 06       		.byte	6
 828 0006 04       		.byte	4
 829 0007 0D       		.byte	13
 830 0008 07       		.byte	7
 831 0009 0E       		.byte	14
 832 000a 0C       		.byte	12
 833 000b 05       		.byte	5
 834 000c 08       		.byte	8
 835 000d 01       		.byte	1
 836 000e 03       		.byte	3
 837 000f 0A       		.byte	10
 838              		.type	CapSense_ramIdacInit, %object
 839              		.size	CapSense_ramIdacInit, 1
 840              	CapSense_ramIdacInit:
 841 0010 20       		.byte	32
 842 0011 000000   		.space	3
 843              		.type	CapSense_dsFlash, %object
 844              		.size	CapSense_dsFlash, 32
 845              	CapSense_dsFlash:
 846 0014 00000000 		.word	CapSense_ioList
 847 0018 24000000 		.word	CapSense_dsRam+36
 848 001c 36000000 		.word	CapSense_dsRam+54
 849 0020 00000000 		.word	0
 850 0024 00000000 		.word	CapSense_debounceTaxel
 851 0028 01280000 		.word	10241
 852 002c 0100     		.short	1
 853 002e 01       		.byte	1
 854 002f 01       		.byte	1
 855 0030 78000000 		.word	CapSense_dsRam+120
 856              		.type	CapSense_ramWidgetInit, %object
 857              		.size	CapSense_ramWidgetInit, 18
 858              	CapSense_ramWidgetInit:
 859 0034 0062     		.short	25088
 860 0036 1000     		.short	16
 861 0038 6400     		.short	100
ARM GAS  C:\Users\mstai\AppData\Local\Temp\ccDx5aab.s 			page 34


 862 003a 28       		.byte	40
 863 003b 28       		.byte	40
 864 003c 0A       		.byte	10
 865 003d 03       		.byte	3
 866 003e 1E       		.byte	30
 867 003f 20       		.byte	32
 868 0040 05       		.byte	5
 869 0041 00       		.space	1
 870 0042 0400     		.short	4
 871 0044 00       		.byte	0
 872 0045 00       		.space	1
 873 0046 0000     		.space	2
 874              		.type	CapSense_extCapMap, %object
 875              		.size	CapSense_extCapMap, 1
 876              	CapSense_extCapMap:
 877 0048 00       		.space	1
 878 0049 000000   		.space	3
 879              		.type	CapSense_ioList, %object
 880              		.size	CapSense_ioList, 32
 881              	CapSense_ioList:
 882 004c 00040240 		.word	1073873920
 883 0050 08040440 		.word	1074005000
 884 0054 18040440 		.word	1074005016
 885 0058 00040440 		.word	1074004992
 886 005c 04040440 		.word	1074004996
 887 0060 000000F0 		.word	-268435456
 888 0064 80000000 		.word	128
 889 0068 1C       		.byte	28
 890 0069 07       		.byte	7
 891 006a 15       		.byte	21
 892 006b 00       		.space	1
 893              		.bss
 894              		.align	2
 895              		.type	CapSense_debounceTaxel, %object
 896              		.size	CapSense_debounceTaxel, 1
 897              	CapSense_debounceTaxel:
 898 0000 00       		.space	1
 899              		.text
 900              	.Letext0:
 901              		.file 2 "Generated_Source\\PSoC4/cytypes.h"
 902              		.file 3 "Generated_Source\\PSoC4\\CapSense_Configuration.h"
 903              		.file 4 "Generated_Source\\PSoC4\\CapSense_Structure.h"
 904              		.file 5 "Generated_Source\\PSoC4\\CyLib.h"
 905              		.file 6 "Generated_Source\\PSoC4\\CapSense_SelfTest.h"